EXPORTS
	??0CLiwMenuPane@@QAE@AAVCEikMenuPane@@H@Z @ 1 NONAME ; CLiwMenuPane::CLiwMenuPane(class CEikMenuPane &, int)
	??0TLiwVariant@@QAE@ABV0@@Z @ 2 NONAME ; TLiwVariant::TLiwVariant(class TLiwVariant const &)
	??1CLiwContainer@@MAE@XZ @ 3 NONAME ; CLiwContainer::~CLiwContainer(void)
	??1CLiwCriteriaItem@@UAE@XZ @ 4 NONAME ; CLiwCriteriaItem::~CLiwCriteriaItem(void)
	??1CLiwDefaultList@@EAE@XZ @ 5 NONAME ; CLiwDefaultList::~CLiwDefaultList(void)
	??1CLiwDefaultMap@@EAE@XZ @ 6 NONAME ; CLiwDefaultMap::~CLiwDefaultMap(void)
	??1CLiwMenuPane@@UAE@XZ @ 7 NONAME ; CLiwMenuPane::~CLiwMenuPane(void)
	??1CLiwServiceHandler@@UAE@XZ @ 8 NONAME ; CLiwServiceHandler::~CLiwServiceHandler(void)
	??1CLiwServiceIfBase@@UAE@XZ @ 9 NONAME ; CLiwServiceIfBase::~CLiwServiceIfBase(void)
	??1CLiwServiceIfMenu@@UAE@XZ @ 10 NONAME ; CLiwServiceIfMenu::~CLiwServiceIfMenu(void)
	??4TLiwVariant@@QAEAAV0@ABV0@@Z @ 11 NONAME ; class TLiwVariant & TLiwVariant::operator=(class TLiwVariant const &)
	??8@YAHABVTLiwGenericParam@@0@Z @ 12 NONAME ; int operator==(class TLiwGenericParam const &, class TLiwGenericParam const &)
	??8@YAHABVTLiwVariant@@0@Z @ 13 NONAME ; int operator==(class TLiwVariant const &, class TLiwVariant const &)
	??8CLiwCriteriaItem@@QAEHABV0@@Z @ 14 NONAME ; int CLiwCriteriaItem::operator==(class CLiwCriteriaItem const &)
	??8CLiwIterable@@UAEHAAV0@@Z @ 15 NONAME ; int CLiwIterable::operator==(class CLiwIterable &)
	??8CLiwList@@UBEHABV0@@Z @ 16 NONAME ; int CLiwList::operator==(class CLiwList const &) const
	??8CLiwMap@@UBEHABV0@@Z @ 17 NONAME ; int CLiwMap::operator==(class CLiwMap const &) const
	??ACLiwGenericParamList@@QBEABVTLiwGenericParam@@H@Z @ 18 NONAME ; class TLiwGenericParam const & CLiwGenericParamList::operator[](int) const
	?AddMenuItemL@CLiwMenuPane@@QAEXHAAUSData@CEikMenuPaneItem@@H@Z @ 19 NONAME ; void CLiwMenuPane::AddMenuItemL(int, struct CEikMenuPaneItem::SData &, int)
	?AddMenuItemL@CLiwMenuPane@@QAEXHAAUSData@CEikMenuPaneItem@@HABVTDesC16@@@Z @ 20 NONAME ; void CLiwMenuPane::AddMenuItemL(int, struct CEikMenuPaneItem::SData &, int, class TDesC16 const &)
	?AddMenuItemsL@CLiwMenuPane@@QAEXAAV?$TBuf@$0BAA@@@HHHH@Z @ 21 NONAME ; void CLiwMenuPane::AddMenuItemsL(class TBuf<256> &, int, int, int, int)
	?AddMenuItemsL@CLiwMenuPane@@QAEXAAVTResourceReader@@HHH@Z @ 22 NONAME ; void CLiwMenuPane::AddMenuItemsL(class TResourceReader &, int, int, int)
	?AddTitleItemL@CLiwMenuPane@@QAEXABVTDesC16@@H@Z @ 23 NONAME ; void CLiwMenuPane::AddTitleItemL(class TDesC16 const &, int)
	?AppendL@CLiwDefaultList@@UAEXABVTLiwVariant@@@Z @ 24 NONAME ; void CLiwDefaultList::AppendL(class TLiwVariant const &)
	?AppendL@CLiwGenericParamList@@QAEXABV1@@Z @ 25 NONAME ; void CLiwGenericParamList::AppendL(class CLiwGenericParamList const &)
	?AppendL@CLiwGenericParamList@@QAEXABVTLiwGenericParam@@@Z @ 26 NONAME ; void CLiwGenericParamList::AppendL(class TLiwGenericParam const &)
	?AsBuffer@TLiwVariant@@QBEPAVCLiwBuffer@@XZ @ 27 NONAME ; class CLiwBuffer * TLiwVariant::AsBuffer(void) const
	?AsData@TLiwVariant@@QBE?AVTPtrC8@@XZ @ 28 NONAME ; class TPtrC8 TLiwVariant::AsData(void) const
	?AsDes@TLiwVariant@@QBE?AVTPtrC16@@XZ @ 29 NONAME ; class TPtrC16 TLiwVariant::AsDes(void) const
	?AsFileHandle@TLiwVariant@@QBE?AVRFile@@XZ @ 30 NONAME ; class RFile TLiwVariant::AsFileHandle(void) const
	?AsInterface@TLiwVariant@@QBEPAVMLiwInterface@@XZ @ 31 NONAME ; class MLiwInterface * TLiwVariant::AsInterface(void) const
	?AsIterable@TLiwVariant@@QBEPAVCLiwIterable@@XZ @ 32 NONAME ; class CLiwIterable * TLiwVariant::AsIterable(void) const
	?AsList@TLiwVariant@@QBEPBVCLiwList@@XZ @ 33 NONAME ; class CLiwList const * TLiwVariant::AsList(void) const
	?AsMap@TLiwVariant@@QBEPBVCLiwMap@@XZ @ 34 NONAME ; class CLiwMap const * TLiwVariant::AsMap(void) const
	?AsTBool@TLiwVariant@@QBEHXZ @ 35 NONAME ; int TLiwVariant::AsTBool(void) const
	?AsTInt32@TLiwVariant@@QBEJXZ @ 36 NONAME ; long TLiwVariant::AsTInt32(void) const
	?AsTReal@TLiwVariant@@QBENXZ @ 37 NONAME ; double TLiwVariant::AsTReal(void) const
	?AsTTime@TLiwVariant@@QBE?AVTTime@@XZ @ 38 NONAME ; class TTime TLiwVariant::AsTTime(void) const
	?AsTUid@TLiwVariant@@QBE?AVTUid@@XZ @ 39 NONAME ; class TUid TLiwVariant::AsTUid(void) const
	?AsTUint@TLiwVariant@@QBEHXZ @ 40 NONAME ; int TLiwVariant::AsTUint(void) const
	?AtL@CLiwDefaultList@@UBEHHAAVTLiwVariant@@@Z @ 41 NONAME ; int CLiwDefaultList::AtL(int, class TLiwVariant &) const
	?AtL@CLiwDefaultMap@@QBEABVTDesC8@@H@Z @ 42 NONAME ; class TDesC8 const & CLiwDefaultMap::AtL(int) const
	?AtL@CLiwDefaultMap@@UBEHHAAVTDes8@@@Z @ 43 NONAME ; int CLiwDefaultMap::AtL(int, class TDes8 &) const
	?AtL@CLiwGenericParamList@@QBEXHAAVTLiwGenericParam@@@Z @ 44 NONAME ; void CLiwGenericParamList::AtL(int, class TLiwGenericParam &) const
	?AttachL@CLiwServiceHandler@@QAEHABV?$RPointerArray@VCLiwCriteriaItem@@@@@Z @ 45 NONAME ; int CLiwServiceHandler::AttachL(class RPointerArray<class CLiwCriteriaItem> const &)
	?AttachL@CLiwServiceHandler@@QAEHABV?$RPointerArray@VCLiwCriteriaItem@@@@AAVCRTSecMgrScriptSession@@@Z @ 46 NONAME ; int CLiwServiceHandler::AttachL(class RPointerArray<class CLiwCriteriaItem> const &, class CRTSecMgrScriptSession &)
	?AttachL@CLiwServiceHandler@@QAEXH@Z @ 47 NONAME ; void CLiwServiceHandler::AttachL(int)
	?AttachMenuL@CLiwServiceHandler@@QAEXAAV?$RArray@H@@HAAV?$RPointerArray@VCLiwCriteriaItem@@@@@Z @ 48 NONAME ; void CLiwServiceHandler::AttachMenuL(class RArray<int> &, int, class RPointerArray<class CLiwCriteriaItem> &)
	?AttachMenuL@CLiwServiceHandler@@QAEXHAAVTResourceReader@@@Z @ 49 NONAME ; void CLiwServiceHandler::AttachMenuL(int, class TResourceReader &)
	?AttachMenuL@CLiwServiceHandler@@QAEXHABV?$RPointerArray@VCLiwCriteriaItem@@@@@Z @ 50 NONAME ; void CLiwServiceHandler::AttachMenuL(int, class RPointerArray<class CLiwCriteriaItem> const &)
	?AttachMenuL@CLiwServiceHandler@@QAEXHH@Z @ 51 NONAME ; void CLiwServiceHandler::AttachMenuL(int, int)
	?ContentType@CLiwCriteriaItem@@QBEABVTDesC8@@XZ @ 52 NONAME ; class TDesC8 const & CLiwCriteriaItem::ContentType(void) const
	?Count@CLiwDefaultList@@UBEHXZ @ 53 NONAME ; int CLiwDefaultList::Count(void) const
	?Count@CLiwDefaultMap@@UBEHXZ @ 54 NONAME ; int CLiwDefaultMap::Count(void) const
	?Count@CLiwGenericParamList@@QBEHHW4TVariantTypeId@LIW@@@Z @ 55 NONAME ; int CLiwGenericParamList::Count(int, enum LIW::TVariantTypeId) const
	?Count@CLiwGenericParamList@@QBEHXZ @ 56 NONAME ; int CLiwGenericParamList::Count(void) const
	?DefaultProvider@CLiwCriteriaItem@@QBE?AVTUid@@XZ @ 57 NONAME ; class TUid CLiwCriteriaItem::DefaultProvider(void) const
	?DetachL@CLiwServiceHandler@@QAEXABV?$RPointerArray@VCLiwCriteriaItem@@@@@Z @ 58 NONAME ; void CLiwServiceHandler::DetachL(class RPointerArray<class CLiwCriteriaItem> const &)
	?DetachL@CLiwServiceHandler@@QAEXH@Z @ 59 NONAME ; void CLiwServiceHandler::DetachL(int)
	?DetachMenu@CLiwServiceHandler@@QAEXHH@Z @ 60 NONAME ; void CLiwServiceHandler::DetachMenu(int, int)
	?Dump@@YAXABVTLiwVariant@@@Z @ 61 NONAME ; void Dump(class TLiwVariant const &)
	?DynCmdId@CLiwMenuPane@@QBEHH@Z @ 62 NONAME ; int CLiwMenuPane::DynCmdId(int) const
	?ExecuteMenuCmdL@CLiwServiceHandler@@QAEXHABVCLiwGenericParamList@@AAV2@IPAVMLiwNotifyCallback@@@Z @ 63 NONAME ; void CLiwServiceHandler::ExecuteMenuCmdL(int, class CLiwGenericParamList const &, class CLiwGenericParamList &, unsigned int, class MLiwNotifyCallback *)
	?ExecuteServiceCmdL@CLiwServiceHandler@@QAEXABHABVCLiwGenericParamList@@AAV2@IPAVMLiwNotifyCallback@@@Z @ 64 NONAME ; void CLiwServiceHandler::ExecuteServiceCmdL(int const &, class CLiwGenericParamList const &, class CLiwGenericParamList &, unsigned int, class MLiwNotifyCallback *)
	?ExecuteServiceCmdL@CLiwServiceHandler@@QAEXABVCLiwCriteriaItem@@ABVCLiwGenericParamList@@AAV3@IPAVMLiwNotifyCallback@@@Z @ 65 NONAME ; void CLiwServiceHandler::ExecuteServiceCmdL(class CLiwCriteriaItem const &, class CLiwGenericParamList const &, class CLiwGenericParamList &, unsigned int, class MLiwNotifyCallback *)
	?ExtensionInterface@CLiwServiceIfBase@@MAEPAXVTUid@@@Z @ 66 NONAME ; void * CLiwServiceIfBase::ExtensionInterface(class TUid)
	?ExtensionInterface@CLiwServiceIfMenu@@MAEPAXVTUid@@@Z @ 67 NONAME ; void * CLiwServiceIfMenu::ExtensionInterface(class TUid)
	?ExternalizeL@CLiwContainer@@UBEXAAVRWriteStream@@@Z @ 68 NONAME ; void CLiwContainer::ExternalizeL(class RWriteStream &) const
	?ExternalizeL@CLiwDefaultList@@UBEXAAVRWriteStream@@@Z @ 69 NONAME ; void CLiwDefaultList::ExternalizeL(class RWriteStream &) const
	?ExternalizeL@CLiwDefaultMap@@UBEXAAVRWriteStream@@@Z @ 70 NONAME ; void CLiwDefaultMap::ExternalizeL(class RWriteStream &) const
	?ExternalizeL@CLiwGenericParamList@@QBEXAAVRWriteStream@@@Z @ 71 NONAME ; void CLiwGenericParamList::ExternalizeL(class RWriteStream &) const
	?FindFirst@CLiwGenericParamList@@QBEPBVTLiwGenericParam@@AAHABVTDesC8@@W4TVariantTypeId@LIW@@@Z @ 72 NONAME ; class TLiwGenericParam const * CLiwGenericParamList::FindFirst(int &, class TDesC8 const &, enum LIW::TVariantTypeId) const
	?FindFirst@CLiwGenericParamList@@QBEPBVTLiwGenericParam@@AAHHW4TVariantTypeId@LIW@@@Z @ 73 NONAME ; class TLiwGenericParam const * CLiwGenericParamList::FindFirst(int &, int, enum LIW::TVariantTypeId) const
	?FindL@CLiwDefaultMap@@UBEHABVTDesC8@@AAVTLiwVariant@@@Z @ 74 NONAME ; int CLiwDefaultMap::FindL(class TDesC8 const &, class TLiwVariant &) const
	?FindNext@CLiwGenericParamList@@QBEPBVTLiwGenericParam@@AAHABVTDesC8@@W4TVariantTypeId@LIW@@@Z @ 75 NONAME ; class TLiwGenericParam const * CLiwGenericParamList::FindNext(int &, class TDesC8 const &, enum LIW::TVariantTypeId) const
	?FindNext@CLiwGenericParamList@@QBEPBVTLiwGenericParam@@AAHHW4TVariantTypeId@LIW@@@Z @ 76 NONAME ; class TLiwGenericParam const * CLiwGenericParamList::FindNext(int &, int, enum LIW::TVariantTypeId) const
	?Get@TLiwVariant@@QBEHAAH@Z @ 77 NONAME ; int TLiwVariant::Get(int &) const
	?Get@TLiwVariant@@QBEHAAI@Z @ 78 NONAME ; int TLiwVariant::Get(unsigned int &) const
	?Get@TLiwVariant@@QBEHAAJ@Z @ 79 NONAME ; int TLiwVariant::Get(long &) const
	?Get@TLiwVariant@@QBEHAAN@Z @ 80 NONAME ; int TLiwVariant::Get(double &) const
	?Get@TLiwVariant@@QBEHAAVCLiwList@@@Z @ 81 NONAME ; int TLiwVariant::Get(class CLiwList &) const
	?Get@TLiwVariant@@QBEHAAVCLiwMap@@@Z @ 82 NONAME ; int TLiwVariant::Get(class CLiwMap &) const
	?Get@TLiwVariant@@QBEHAAVRFile@@@Z @ 83 NONAME ; int TLiwVariant::Get(class RFile &) const
	?Get@TLiwVariant@@QBEHAAVTDes16@@@Z @ 84 NONAME ; int TLiwVariant::Get(class TDes16 &) const
	?Get@TLiwVariant@@QBEHAAVTDes8@@@Z @ 85 NONAME ; int TLiwVariant::Get(class TDes8 &) const
	?Get@TLiwVariant@@QBEHAAVTPtrC16@@@Z @ 86 NONAME ; int TLiwVariant::Get(class TPtrC16 &) const
	?Get@TLiwVariant@@QBEHAAVTPtrC8@@@Z @ 87 NONAME ; int TLiwVariant::Get(class TPtrC8 &) const
	?Get@TLiwVariant@@QBEHAAVTTime@@@Z @ 88 NONAME ; int TLiwVariant::Get(class TTime &) const
	?Get@TLiwVariant@@QBEHAAVTUid@@@Z @ 89 NONAME ; int TLiwVariant::Get(class TUid &) const
	?GetCriteria@CLiwServiceHandler@@QAEPBVCLiwCriteriaItem@@H@Z @ 90 NONAME ; class CLiwCriteriaItem const * CLiwServiceHandler::GetCriteria(int)
	?GetInterest@CLiwServiceHandler@@QAEXAAV?$RPointerArray@VCLiwCriteriaItem@@@@@Z @ 91 NONAME ; void CLiwServiceHandler::GetInterest(class RPointerArray<class CLiwCriteriaItem> &)
	?GetMetaDataOptions@CLiwCriteriaItem@@QBEXAAVTLiwVariant@@@Z @ 92 NONAME ; void CLiwCriteriaItem::GetMetaDataOptions(class TLiwVariant &) const
	?GetTransactionID@MLiwNotifyCallback@@SAJXZ @ 93 NONAME ; long MLiwNotifyCallback::GetTransactionID(void)
	?HandleSubmenuL@CLiwServiceHandler@@QAEHAAVCEikMenuPane@@@Z @ 94 NONAME ; int CLiwServiceHandler::HandleSubmenuL(class CEikMenuPane &)
	?Id@CLiwCriteriaItem@@QBEHXZ @ 95 NONAME ; int CLiwCriteriaItem::Id(void) const
	?InParamListL@CLiwServiceHandler@@QAEAAVCLiwGenericParamList@@XZ @ 96 NONAME ; class CLiwGenericParamList & CLiwServiceHandler::InParamListL(void)
	?InitializeMenuPaneL@CLiwServiceHandler@@QAEXAAVCEikMenuPane@@HHABVCLiwGenericParamList@@@Z @ 97 NONAME ; void CLiwServiceHandler::InitializeMenuPaneL(class CEikMenuPane &, int, int, class CLiwGenericParamList const &)
	?InitializeMenuPaneL@CLiwServiceHandler@@QAEXAAVCEikMenuPane@@HHABVCLiwGenericParamList@@H@Z @ 98 NONAME ; void CLiwServiceHandler::InitializeMenuPaneL(class CEikMenuPane &, int, int, class CLiwGenericParamList const &, int)
	?InsertL@CLiwDefaultMap@@UAEXABVTDesC8@@ABVTLiwVariant@@@Z @ 99 NONAME ; void CLiwDefaultMap::InsertL(class TDesC8 const &, class TLiwVariant const &)
	?InternalizeL@CLiwGenericParamList@@QAEXAAVRReadStream@@@Z @ 100 NONAME ; void CLiwGenericParamList::InternalizeL(class RReadStream &)
	?IsLiwMenu@CLiwServiceHandler@@QAEHH@Z @ 101 NONAME ; int CLiwServiceHandler::IsLiwMenu(int)
	?IsSubMenuEmpty@CLiwServiceHandler@@QAEHH@Z @ 102 NONAME ; int CLiwServiceHandler::IsSubMenuEmpty(int)
	?MaxProviders@CLiwCriteriaItem@@QBEHXZ @ 103 NONAME ; int CLiwCriteriaItem::MaxProviders(void) const
	?MenuCmdId@CLiwMenuPane@@QBEHH@Z @ 104 NONAME ; int CLiwMenuPane::MenuCmdId(int) const
	?MenuCmdId@CLiwServiceHandler@@QBEHH@Z @ 105 NONAME ; int CLiwServiceHandler::MenuCmdId(int) const
	?MenuPane@CLiwServiceIfMenu@@QBEPBVCLiwMenuPane@@XZ @ 106 NONAME ; class CLiwMenuPane const * CLiwServiceIfMenu::MenuPane(void) const
	?NbrOfProviders@CLiwServiceHandler@@QAEHPBVCLiwCriteriaItem@@@Z @ 107 NONAME ; int CLiwServiceHandler::NbrOfProviders(class CLiwCriteriaItem const *)
	?NewL@CLiwCriteriaItem@@SAPAV1@HABVTDesC8@@0@Z @ 108 NONAME ; class CLiwCriteriaItem * CLiwCriteriaItem::NewL(int, class TDesC8 const &, class TDesC8 const &)
	?NewL@CLiwCriteriaItem@@SAPAV1@HHABVTDesC8@@@Z @ 109 NONAME ; class CLiwCriteriaItem * CLiwCriteriaItem::NewL(int, int, class TDesC8 const &)
	?NewL@CLiwCriteriaItem@@SAPAV1@XZ @ 110 NONAME ; class CLiwCriteriaItem * CLiwCriteriaItem::NewL(void)
	?NewL@CLiwDefaultList@@SAPAV1@XZ @ 111 NONAME ; class CLiwDefaultList * CLiwDefaultList::NewL(void)
	?NewL@CLiwDefaultMap@@SAPAV1@XZ @ 112 NONAME ; class CLiwDefaultMap * CLiwDefaultMap::NewL(void)
	?NewL@CLiwGenericParamList@@SAPAV1@AAVRReadStream@@@Z @ 113 NONAME ; class CLiwGenericParamList * CLiwGenericParamList::NewL(class RReadStream &)
	?NewL@CLiwGenericParamList@@SAPAV1@XZ @ 114 NONAME ; class CLiwGenericParamList * CLiwGenericParamList::NewL(void)
	?NewL@CLiwServiceHandler@@SAPAV1@XZ @ 115 NONAME ; class CLiwServiceHandler * CLiwServiceHandler::NewL(void)
	?NewLC@CLiwCriteriaItem@@SAPAV1@HABVTDesC8@@0@Z @ 116 NONAME ; class CLiwCriteriaItem * CLiwCriteriaItem::NewLC(int, class TDesC8 const &, class TDesC8 const &)
	?NewLC@CLiwCriteriaItem@@SAPAV1@HHABVTDesC8@@@Z @ 117 NONAME ; class CLiwCriteriaItem * CLiwCriteriaItem::NewLC(int, int, class TDesC8 const &)
	?NewLC@CLiwCriteriaItem@@SAPAV1@XZ @ 118 NONAME ; class CLiwCriteriaItem * CLiwCriteriaItem::NewLC(void)
	?NewLC@CLiwDefaultList@@SAPAV1@AAVRReadStream@@@Z @ 119 NONAME ; class CLiwDefaultList * CLiwDefaultList::NewLC(class RReadStream &)
	?NewLC@CLiwDefaultMap@@SAPAV1@AAVRReadStream@@@Z @ 120 NONAME ; class CLiwDefaultMap * CLiwDefaultMap::NewLC(class RReadStream &)
	?NewLC@CLiwGenericParamList@@SAPAV1@AAVRReadStream@@@Z @ 121 NONAME ; class CLiwGenericParamList * CLiwGenericParamList::NewLC(class RReadStream &)
	?NewLC@CLiwGenericParamList@@SAPAV1@XZ @ 122 NONAME ; class CLiwGenericParamList * CLiwGenericParamList::NewLC(void)
	?NewLC@CLiwServiceHandler@@SAPAV1@XZ @ 123 NONAME ; class CLiwServiceHandler * CLiwServiceHandler::NewLC(void)
	?Options@CLiwCriteriaItem@@QBEIXZ @ 124 NONAME ; unsigned int CLiwCriteriaItem::Options(void) const
	?OutParamListL@CLiwServiceHandler@@QAEAAVCLiwGenericParamList@@XZ @ 125 NONAME ; class CLiwGenericParamList & CLiwServiceHandler::OutParamListL(void)
	?PackForServerL@CLiwGenericParamList@@QAEPAVHBufC8@@AAVTIpcArgs@@@Z @ 126 NONAME ; class HBufC8 * CLiwGenericParamList::PackForServerL(class TIpcArgs &)
	?QueryImplementationL@CLiwServiceHandler@@QAEXAAV?$RPointerArray@VCLiwCriteriaItem@@@@0@Z @ 127 NONAME ; void CLiwServiceHandler::QueryImplementationL(class RPointerArray<class CLiwCriteriaItem> &, class RPointerArray<class CLiwCriteriaItem> &)
	?ReadFromResoureL@CLiwCriteriaItem@@QAEXAAVTResourceReader@@@Z @ 128 NONAME ; void CLiwCriteriaItem::ReadFromResoureL(class TResourceReader &)
	?Remove@CLiwDefaultList@@UAEXH@Z @ 129 NONAME ; void CLiwDefaultList::Remove(int)
	?Remove@CLiwDefaultMap@@UAEXABVTDesC8@@@Z @ 130 NONAME ; void CLiwDefaultMap::Remove(class TDesC8 const &)
	?Remove@CLiwGenericParamList@@QAEHH@Z @ 131 NONAME ; int CLiwGenericParamList::Remove(int)
	?Remove@CLiwGenericParamList@@QAEXABVTDesC8@@@Z @ 132 NONAME ; void CLiwGenericParamList::Remove(class TDesC8 const &)
	?ReportMenuLaunch@CLiwServiceHandler@@SAXXZ @ 133 NONAME ; void CLiwServiceHandler::ReportMenuLaunch(void)
	?Reset@CLiwGenericParamList@@QAEXXZ @ 134 NONAME ; void CLiwGenericParamList::Reset(void)
	?Reset@CLiwServiceHandler@@QAEXXZ @ 135 NONAME ; void CLiwServiceHandler::Reset(void)
	?Reset@TLiwVariant@@QAEXXZ @ 136 NONAME ; void TLiwVariant::Reset(void)
	?ServiceClass@CLiwCriteriaItem@@QBEABVTUid@@XZ @ 137 NONAME ; class TUid const & CLiwCriteriaItem::ServiceClass(void) const
	?ServiceCmd@CLiwCriteriaItem@@QBEHXZ @ 138 NONAME ; int CLiwCriteriaItem::ServiceCmd(void) const
	?ServiceCmdByMenuCmd@CLiwServiceHandler@@QBEHH@Z @ 139 NONAME ; int CLiwServiceHandler::ServiceCmdByMenuCmd(int) const
	?ServiceCmdId@CLiwMenuPane@@QBEHH@Z @ 140 NONAME ; int CLiwMenuPane::ServiceCmdId(int) const
	?ServiceCmdStr@CLiwCriteriaItem@@QBEABVTDesC8@@XZ @ 141 NONAME ; class TDesC8 const & CLiwCriteriaItem::ServiceCmdStr(void) const
	?Set@TLiwVariant@@QAEXABVRFile@@@Z @ 142 NONAME ; void TLiwVariant::Set(class RFile const &)
	?Set@TLiwVariant@@QAEXABVTDesC16@@@Z @ 143 NONAME ; void TLiwVariant::Set(class TDesC16 const &)
	?Set@TLiwVariant@@QAEXABVTDesC8@@@Z @ 144 NONAME ; void TLiwVariant::Set(class TDesC8 const &)
	?Set@TLiwVariant@@QAEXABVTTime@@@Z @ 145 NONAME ; void TLiwVariant::Set(class TTime const &)
	?Set@TLiwVariant@@QAEXABVTUid@@@Z @ 146 NONAME ; void TLiwVariant::Set(class TUid const &)
	?Set@TLiwVariant@@QAEXH@Z @ 147 NONAME ; void TLiwVariant::Set(int)
	?Set@TLiwVariant@@QAEXI@Z @ 148 NONAME ; void TLiwVariant::Set(unsigned int)
	?Set@TLiwVariant@@QAEXJ@Z @ 149 NONAME ; void TLiwVariant::Set(long)
	?Set@TLiwVariant@@QAEXN@Z @ 150 NONAME ; void TLiwVariant::Set(double)
	?Set@TLiwVariant@@QAEXPBVCLiwBuffer@@@Z @ 151 NONAME ; void TLiwVariant::Set(class CLiwBuffer const *)
	?Set@TLiwVariant@@QAEXPBVCLiwIterable@@@Z @ 152 NONAME ; void TLiwVariant::Set(class CLiwIterable const *)
	?Set@TLiwVariant@@QAEXPBVCLiwList@@@Z @ 153 NONAME ; void TLiwVariant::Set(class CLiwList const *)
	?Set@TLiwVariant@@QAEXPBVCLiwMap@@@Z @ 154 NONAME ; void TLiwVariant::Set(class CLiwMap const *)
	?Set@TLiwVariant@@QAEXPBVMLiwInterface@@@Z @ 155 NONAME ; void TLiwVariant::Set(class MLiwInterface const *)
	?SetContentTypeL@CLiwCriteriaItem@@QAEXABVTDesC8@@@Z @ 156 NONAME ; void CLiwCriteriaItem::SetContentTypeL(class TDesC8 const &)
	?SetDefaultProvider@CLiwCriteriaItem@@QAEXH@Z @ 157 NONAME ; void CLiwCriteriaItem::SetDefaultProvider(int)
	?SetId@CLiwCriteriaItem@@QAEXH@Z @ 158 NONAME ; void CLiwCriteriaItem::SetId(int)
	?SetL@TLiwVariant@@QAEXABV1@@Z @ 159 NONAME ; void TLiwVariant::SetL(class TLiwVariant const &)
	?SetMaxProviders@CLiwCriteriaItem@@QAEXH@Z @ 160 NONAME ; void CLiwCriteriaItem::SetMaxProviders(int)
	?SetMetaDataOptions@CLiwCriteriaItem@@QAEXABVTLiwVariant@@@Z @ 161 NONAME ; void CLiwCriteriaItem::SetMetaDataOptions(class TLiwVariant const &)
	?SetOptions@CLiwCriteriaItem@@QAEXI@Z @ 162 NONAME ; void CLiwCriteriaItem::SetOptions(unsigned int)
	?SetServiceClass@CLiwCriteriaItem@@QAEXABVTUid@@@Z @ 163 NONAME ; void CLiwCriteriaItem::SetServiceClass(class TUid const &)
	?SetServiceCmd@CLiwCriteriaItem@@QAEXH@Z @ 164 NONAME ; void CLiwCriteriaItem::SetServiceCmd(int)
	?SetServiceCmdL@CLiwCriteriaItem@@QAEXABVTDesC8@@@Z @ 165 NONAME ; void CLiwCriteriaItem::SetServiceCmdL(class TDesC8 const &)
	?Size@CLiwContainer@@UBEHXZ @ 166 NONAME ; int CLiwContainer::Size(void) const
	?Size@CLiwDefaultList@@UBEHXZ @ 167 NONAME ; int CLiwDefaultList::Size(void) const
	?Size@CLiwDefaultMap@@UBEHXZ @ 168 NONAME ; int CLiwDefaultMap::Size(void) const
	?Size@CLiwGenericParamList@@QBEHXZ @ 169 NONAME ; int CLiwGenericParamList::Size(void) const
	?UnpackFromClientL@CLiwGenericParamList@@QAEXABVRMessage2@@@Z @ 170 NONAME ; void CLiwGenericParamList::UnpackFromClientL(class RMessage2 const &)
	?VariantCleanup@TLiwVariant@@SAXPAX@Z @ 171 NONAME ; void TLiwVariant::VariantCleanup(void *)
	?Close@CLiwContainer@@QAEXXZ @ 172 NONAME ; void CLiwContainer::Close(void)
	?ParamCleanup@TLiwGenericParam@@SAXPAX@Z @ 173 NONAME ; void TLiwGenericParam::ParamCleanup(void *)
	?NewLC@CLiwDefaultList@@SAPAV1@XZ @ 174 NONAME ; class CLiwDefaultList * CLiwDefaultList::NewLC(void)
	?NewLC@CLiwDefaultMap@@SAPAV1@XZ @ 175 NONAME ; class CLiwDefaultMap * CLiwDefaultMap::NewLC(void)
	?PushL@TLiwVariant@@QAEXXZ @ 176 NONAME ; void TLiwVariant::PushL(void)
	?PushL@CLiwContainer@@QAEXXZ @ 177 NONAME ; void CLiwContainer::PushL(void)
	?PushL@TLiwGenericParam@@QAEXXZ @ 178 NONAME ; void TLiwGenericParam::PushL(void)
	?AsTInt64@TLiwVariant@@QBE_JXZ @ 179 NONAME ; long long TLiwVariant::AsTInt64(void) const
	?Get@TLiwVariant@@QBEHAA_J@Z @ 180 NONAME ; int TLiwVariant::Get(long long &) const
	?Set@TLiwVariant@@QAEX_J@Z @ 181 NONAME ; void TLiwVariant::Set(long long)

