EXPORTS
	??0RSettingManagement@@QAE@XZ @ 1 NONAME ; RSettingManagement::RSettingManagement(void)
	?AddSIDWRForDefaults@RSettingManagement@@QAEHVTUid@@@Z @ 2 NONAME ; int RSettingManagement::AddSIDWRForDefaults(class TUid)
	?CheckAccess@RAccessCheck@@QAEHKW4TAccessType@@AAH@Z @ 3 NONAME ; int RAccessCheck::CheckAccess(unsigned long, enum TAccessType, int &)
	?CheckCommitState@RCentRepTool@@QAEHXZ @ 4 NONAME ; int RCentRepTool::CheckCommitState(void)
	?Close@RAccessCheck@@QAEXXZ @ 5 NONAME ; void RAccessCheck::Close(void)
	?Close@RCentRepTool@@QAEXXZ @ 6 NONAME ; void RCentRepTool::Close(void)
	?Close@RSettingManagement@@QAEXXZ @ 7 NONAME ; void RSettingManagement::Close(void)
	?Connect@RCentRepTool@@QAEHXZ @ 8 NONAME ; int RCentRepTool::Connect(void)
	?Flush@RSettingManagement@@QAEHXZ @ 9 NONAME ; int RSettingManagement::Flush(void)
	?InitSession@RSettingManagement@@QAEXAAVTRequestStatus@@@Z @ 10 NONAME ; void RSettingManagement::InitSession(class TRequestStatus &)
	?Open@RAccessCheck@@QAEHVTUid@@AAVRCentRepTool@@@Z @ 11 NONAME ; int RAccessCheck::Open(class TUid, class RCentRepTool &)
	?Open@RSettingManagement@@QAEHVTUid@@AAVRCentRepTool@@@Z @ 12 NONAME ; int RSettingManagement::Open(class TUid, class RCentRepTool &)
	?PerformRFS@RCentRepTool@@QAEHXZ @ 13 NONAME ; int RCentRepTool::PerformRFS(void)
	?RemoveBackupFlagForDefaults@RSettingManagement@@QAEHXZ @ 14 NONAME ; int RSettingManagement::RemoveBackupFlagForDefaults(void)
	?RemoveBackupFlagForMask@RSettingManagement@@QAEHKK@Z @ 15 NONAME ; int RSettingManagement::RemoveBackupFlagForMask(unsigned long, unsigned long)
	?RemoveBackupFlagForRange@RSettingManagement@@QAEHKK@Z @ 16 NONAME ; int RSettingManagement::RemoveBackupFlagForRange(unsigned long, unsigned long)
	?RestoreBackupFlagForDefaults@RSettingManagement@@QAEHXZ @ 17 NONAME ; int RSettingManagement::RestoreBackupFlagForDefaults(void)
	?RestoreBackupFlagForMask@RSettingManagement@@QAEHKK@Z @ 18 NONAME ; int RSettingManagement::RestoreBackupFlagForMask(unsigned long, unsigned long)
	?RestoreBackupFlagForRange@RSettingManagement@@QAEHKK@Z @ 19 NONAME ; int RSettingManagement::RestoreBackupFlagForRange(unsigned long, unsigned long)
	?RestoreDefaults@RSettingManagement@@QAEHXZ @ 20 NONAME ; int RSettingManagement::RestoreDefaults(void)
	?RestoreMask@RSettingManagement@@QAEHKK@Z @ 21 NONAME ; int RSettingManagement::RestoreMask(unsigned long, unsigned long)
	?RestoreRange@RSettingManagement@@QAEHKK@Z @ 22 NONAME ; int RSettingManagement::RestoreRange(unsigned long, unsigned long)
	?RestoreSetting@RSettingManagement@@QAEHK@Z @ 23 NONAME ; int RSettingManagement::RestoreSetting(unsigned long)
	?SetSIDWRForMask@RSettingManagement@@QAEHKKVTUid@@@Z @ 24 NONAME ; int RSettingManagement::SetSIDWRForMask(unsigned long, unsigned long, class TUid)
	?SetSIDWRForRange@RSettingManagement@@QAEHKKVTUid@@@Z @ 25 NONAME ; int RSettingManagement::SetSIDWRForRange(unsigned long, unsigned long, class TUid)
	?SetSIDWRForSetting@RSettingManagement@@QAEHKVTUid@@@Z @ 26 NONAME ; int RSettingManagement::SetSIDWRForSetting(unsigned long, class TUid)

