EXPORTS
	??0TElementInfo@@QAE@ABVTDesC8@@@Z @ 1 NONAME ; TElementInfo::TElementInfo(class TDesC8 const &)
	??0TParserResponse@@QAE@AAVTDes8@@@Z @ 2 NONAME ; TParserResponse::TParserResponse(class TDes8 &)
	??0TParserResponse@@QAE@XZ @ 3 NONAME ; TParserResponse::TParserResponse(void)
	??0TRequestContext@@QAE@XZ @ 4 NONAME ; TRequestContext::TRequestContext(void)
	??1CSettingEnforcementInfo@@UAE@XZ @ 5 NONAME ; CSettingEnforcementInfo::~CSettingEnforcementInfo(void)
	??1TElementInfo@@QAE@XZ @ 6 NONAME ; TElementInfo::~TElementInfo(void)
	??1TRequestContext@@QAE@XZ @ 7 NONAME ; TRequestContext::~TRequestContext(void)
	?AddActionAttributeL@TRequestContext@@QAEXABVTDesC8@@00@Z @ 8 NONAME ; void TRequestContext::AddActionAttributeL(class TDesC8 const &, class TDesC8 const &, class TDesC8 const &)
	?AddEnvironmentAttributeL@TRequestContext@@QAEXABVTDesC8@@00@Z @ 9 NONAME ; void TRequestContext::AddEnvironmentAttributeL(class TDesC8 const &, class TDesC8 const &, class TDesC8 const &)
	?AddResourceAttributeL@TRequestContext@@QAEXABVTDesC8@@00@Z @ 10 NONAME ; void TRequestContext::AddResourceAttributeL(class TDesC8 const &, class TDesC8 const &, class TDesC8 const &)
	?AddSessionTrust@RPolicyManagement@@QAEHAAVTCertInfo@@@Z @ 11 NONAME ; int RPolicyManagement::AddSessionTrust(class TCertInfo &)
	?AddSubjectAttributeL@TRequestContext@@QAEXABVTDesC8@@00@Z @ 12 NONAME ; void TRequestContext::AddSubjectAttributeL(class TDesC8 const &, class TDesC8 const &, class TDesC8 const &)
	?AddSubjectAttributeL@TRequestContext@@QAEXABVTDesC8@@ABVTCertInfo@@@Z @ 13 NONAME ; void TRequestContext::AddSubjectAttributeL(class TDesC8 const &, class TCertInfo const &)
	?AddSubjectAttributeL@TRequestContext@@QAEXABVTDesC8@@ABVTUid@@@Z @ 14 NONAME ; void TRequestContext::AddSubjectAttributeL(class TDesC8 const &, class TUid const &)
	?CertificateRole@RPolicyManagement@@QAEHAAVTCertInfo@@AAW4TRole@@@Z @ 15 NONAME ; int RPolicyManagement::CertificateRole(class TCertInfo &, enum TRole &)
	?Close@RElementIdArray@@QAEXXZ @ 16 NONAME ; void RElementIdArray::Close(void)
	?Close@RPolicyEngine@@QAEXXZ @ 17 NONAME ; void RPolicyEngine::Close(void)
	?Close@RPolicyManagement@@QAEXXZ @ 18 NONAME ; void RPolicyManagement::Close(void)
	?Close@RPolicyRequest@@QAEXXZ @ 19 NONAME ; void RPolicyRequest::Close(void)
	?Connect@RPolicyEngine@@QAEHXZ @ 20 NONAME ; int RPolicyEngine::Connect(void)
	?EnforcementActive@CSettingEnforcementInfo@@QAEHW4KSettingEnforcements@@AAH@Z @ 21 NONAME ; int CSettingEnforcementInfo::EnforcementActive(enum KSettingEnforcements, int &)
	?ExecuteOperation@RPolicyManagement@@QAEHABVTDesC8@@@Z @ 22 NONAME ; int RPolicyManagement::ExecuteOperation(class TDesC8 const &)
	?ExecuteOperation@RPolicyManagement@@QAEHABVTDesC8@@AAVTParserResponse@@@Z @ 23 NONAME ; int RPolicyManagement::ExecuteOperation(class TDesC8 const &, class TParserResponse &)
	?GetChildElementArray@TElementInfo@@QBEABVRElementIdArray@@XZ @ 24 NONAME ; class RElementIdArray const & TElementInfo::GetChildElementArray(void) const
	?GetDescription@TElementInfo@@QBEABVTDesC8@@XZ @ 25 NONAME ; class TDesC8 const & TElementInfo::GetDescription(void) const
	?GetElementId@TElementInfo@@QBEABVTDesC8@@XZ @ 26 NONAME ; class TDesC8 const & TElementInfo::GetElementId(void) const
	?GetElementL@RPolicyManagement@@QAEHAAVTElementInfo@@@Z @ 27 NONAME ; int RPolicyManagement::GetElementL(class TElementInfo &)
	?GetElementListL@RPolicyManagement@@QAEHABW4TElementType@@AAVRElementIdArray@@@Z @ 28 NONAME ; int RPolicyManagement::GetElementListL(enum TElementType const &, class RElementIdArray &)
	?GetResponseValue@TResponse@@QAE?AW4TResponseValue@@XZ @ 29 NONAME ; enum TResponseValue TResponse::GetResponseValue(void)
	?GetReturnMessage@TParserResponse@@QAEABVTDesC8@@XZ @ 30 NONAME ; class TDesC8 const & TParserResponse::GetReturnMessage(void)
	?GetXACML@TElementInfo@@QBEABVTDesC8@@XZ @ 31 NONAME ; class TDesC8 const & TElementInfo::GetXACML(void) const
	?GetXACMLDescriptionL@RPolicyManagement@@QAEHAAVTElementInfo@@@Z @ 32 NONAME ; int RPolicyManagement::GetXACMLDescriptionL(class TElementInfo &)
	?IsAllowedServerId@RPolicyManagement@@QAEHABVTDesC16@@@Z @ 33 NONAME ; int RPolicyManagement::IsAllowedServerId(class TDesC16 const &)
	?MakeRequest@RPolicyRequest@@QAEHAAVTRequestContext@@AAVTResponse@@@Z @ 34 NONAME ; int RPolicyRequest::MakeRequest(class TRequestContext &, class TResponse &)
	?NewL@CSettingEnforcementInfo@@SAPAV1@XZ @ 35 NONAME ; class CSettingEnforcementInfo * CSettingEnforcementInfo::NewL(void)
	?Open@RPolicyManagement@@QAEHAAVRPolicyEngine@@@Z @ 36 NONAME ; int RPolicyManagement::Open(class RPolicyEngine &)
	?Open@RPolicyRequest@@QAEHAAVRPolicyEngine@@@Z @ 37 NONAME ; int RPolicyRequest::Open(class RPolicyEngine &)
	?PerformRFS@RPolicyEngine@@QAEHXZ @ 38 NONAME ; int RPolicyEngine::PerformRFS(void)
	?SetResponseValue@TResponse@@QAEXW4TResponseValue@@@Z @ 39 NONAME ; void TResponse::SetResponseValue(enum TResponseValue)
	?Zero@TParserResponse@@QAEXXZ @ 40 NONAME ; void TParserResponse::Zero(void)
	?EnforcementActiveL@CSettingEnforcementInfo@@QAEXABVTDesC8@@AAH@Z @ 41 NONAME ; void CSettingEnforcementInfo::EnforcementActiveL(class TDesC8 const &, int &)
	?RemoveServerCert@RPolicyManagement@@QAEHABVTDesC16@@@Z @ 42 NONAME ; int RPolicyManagement::RemoveServerCert(class TDesC16 const &)
	?AddServerCert@RPolicyManagement@@QAEHABVCX509Certificate@@AAVTDes16@@@Z @ 43 NONAME ; int RPolicyManagement::AddServerCert(class CX509Certificate const &, class TDes16 &)

