EXPORTS
	_ZN9MSecModUI7CreateLEv @ 1 NONAME
	_ZTI14CSecModUIModel @ 2 NONAME ; #<TI>#
	_ZTI17CSecModUIViewBase @ 3 NONAME ; #<TI>#
	_ZTI17CSecModUIViewCode @ 4 NONAME ; #<TI>#
	_ZTI17CSecModUIViewMain @ 5 NONAME ; #<TI>#
	_ZTI19CSecModUIViewAccess @ 6 NONAME ; #<TI>#
	_ZTI20CSecModUISyncWrapper @ 7 NONAME ; #<TI>#
	_ZTI22CSecModUIContainerBase @ 8 NONAME ; #<TI>#
	_ZTI22CSecModUIContainerCode @ 9 NONAME ; #<TI>#
	_ZTI22CSecModUIContainerMain @ 10 NONAME ; #<TI>#
	_ZTI22CSecModUIViewSignature @ 11 NONAME ; #<TI>#
	_ZTI24CSecModUIContainerAccess @ 12 NONAME ; #<TI>#
	_ZTI27CSecModUIContainerSignature @ 13 NONAME ; #<TI>#
	_ZTV14CSecModUIModel @ 14 NONAME ; #<VT>#
	_ZTV17CSecModUIViewBase @ 15 NONAME ; #<VT>#
	_ZTV17CSecModUIViewCode @ 16 NONAME ; #<VT>#
	_ZTV17CSecModUIViewMain @ 17 NONAME ; #<VT>#
	_ZTV19CSecModUIViewAccess @ 18 NONAME ; #<VT>#
	_ZTV20CSecModUISyncWrapper @ 19 NONAME ; #<VT>#
	_ZTV22CSecModUIContainerBase @ 20 NONAME ; #<VT>#
	_ZTV22CSecModUIContainerCode @ 21 NONAME ; #<VT>#
	_ZTV22CSecModUIContainerMain @ 22 NONAME ; #<VT>#
	_ZTV22CSecModUIViewSignature @ 23 NONAME ; #<VT>#
	_ZTV24CSecModUIContainerAccess @ 24 NONAME ; #<VT>#
	_ZTV27CSecModUIContainerSignature @ 25 NONAME ; #<VT>#

