EXPORTS
	??0CXMLGenerator@@IAE@XZ @ 1 NONAME ; CXMLGenerator::CXMLGenerator(void)
	??1CWbxml2XmlConverter@@UAE@XZ @ 2 NONAME ; CWbxml2XmlConverter::~CWbxml2XmlConverter(void)
	??1CXMLDevInfDocHandler@@UAE@XZ @ 3 NONAME ; CXMLDevInfDocHandler::~CXMLDevInfDocHandler(void)
	??1CXMLGenerator@@MAE@XZ @ 4 NONAME ; CXMLGenerator::~CXMLGenerator(void)
	??1CXMLParser@@UAE@XZ @ 5 NONAME ; CXMLParser::~CXMLParser(void)
	??1CXMLSyncMLDocHandler@@UAE@XZ @ 6 NONAME ; CXMLSyncMLDocHandler::~CXMLSyncMLDocHandler(void)
	?AddElementL@CXMLGenerator@@IAEXEABVTDesC8@@ABVCWBXMLAttributes@@W4TXMLContentFormat@@@Z @ 7 NONAME ; void CXMLGenerator::AddElementL(unsigned char, class TDesC8 const &, class CWBXMLAttributes const &, enum TXMLContentFormat)
	?AddElementL@CXMLGenerator@@IAEXEABVTDesC8@@W4TXMLContentFormat@@@Z @ 8 NONAME ; void CXMLGenerator::AddElementL(unsigned char, class TDesC8 const &, enum TXMLContentFormat)
	?AddEntityL@CXMLGenerator@@IAEXK@Z @ 9 NONAME ; void CXMLGenerator::AddEntityL(unsigned long)
	?AddExtL@CXMLGenerator@@IAEXH@Z @ 10 NONAME ; void CXMLGenerator::AddExtL(int)
	?AddExt_IL@CXMLGenerator@@IAEXHABVTDesC8@@@Z @ 11 NONAME ; void CXMLGenerator::AddExt_IL(int, class TDesC8 const &)
	?AddExt_TL@CXMLGenerator@@IAEXHK@Z @ 12 NONAME ; void CXMLGenerator::AddExt_TL(int, unsigned long)
	?BeginDocumentL@CXMLGenerator@@IAEXEJKABVTDesC8@@@Z @ 13 NONAME ; void CXMLGenerator::BeginDocumentL(unsigned char, long, unsigned long, class TDesC8 const &)
	?BeginElementL@CXMLGenerator@@IAEXEHH@Z @ 14 NONAME ; void CXMLGenerator::BeginElementL(unsigned char, int, int)
	?ConvertL@CWbxml2XmlConverter@@QAEXAAVRReadStream@@@Z @ 15 NONAME ; void CWbxml2XmlConverter::ConvertL(class RReadStream &)
	?ConvertL@CWbxml2XmlConverter@@QAEXPBEJ@Z @ 16 NONAME ; void CWbxml2XmlConverter::ConvertL(unsigned char const *, long)
	?CreateDynamicWorkspaceL@CXMLGenerator@@IAEXXZ @ 17 NONAME ; void CXMLGenerator::CreateDynamicWorkspaceL(void)
	?CreateStaticWorkspaceL@CXMLGenerator@@IAEXH@Z @ 18 NONAME ; void CXMLGenerator::CreateStaticWorkspaceL(int)
	?CreateWorkspaceL@CXMLDevInfGenerator@@QAEXXZ @ 19 NONAME ; void CXMLDevInfGenerator::CreateWorkspaceL(void)
	?CreateWorkspaceL@CXMLSyncMLGenerator@@QAEXXZ @ 20 NONAME ; void CXMLSyncMLGenerator::CreateWorkspaceL(void)
	?DataConsumed@CXMLSyncMLGenerator@@QBEHXZ @ 21 NONAME ; int CXMLSyncMLGenerator::DataConsumed(void) const
	?Document@CWbxml2XmlConverter@@QBE?AVTPtrC8@@XZ @ 22 NONAME ; class TPtrC8 CWbxml2XmlConverter::Document(void) const
	?Document@CXMLGenerator@@QAE?AVTPtrC8@@XZ @ 23 NONAME ; class TPtrC8 CXMLGenerator::Document(void)
	?EndElementL@CXMLGenerator@@IAEXXZ @ 24 NONAME ; void CXMLGenerator::EndElementL(void)
	?HandleResult@CXMLGenerator@@IAEHHH@Z @ 25 NONAME ; int CXMLGenerator::HandleResult(int, int)
	?IndentLevel@CXMLGenerator@@QBEHXZ @ 26 NONAME ; int CXMLGenerator::IndentLevel(void) const
	?InitializeL@CXMLDevInfGenerator@@QAEXXZ @ 27 NONAME ; void CXMLDevInfGenerator::InitializeL(void)
	?InitializeL@CXMLSyncMLGenerator@@QAEXXZ @ 28 NONAME ; void CXMLSyncMLGenerator::InitializeL(void)
	?ItemIndex@CXMLSyncMLGenerator@@QBEHXZ @ 29 NONAME ; int CXMLSyncMLGenerator::ItemIndex(void) const
	?NewL@CWbxml2XmlConverter@@SAPAV1@XZ @ 30 NONAME ; class CWbxml2XmlConverter * CWbxml2XmlConverter::NewL(void)
	?NewL@CXMLDevInfDocHandler@@SAPAV1@PAVMWBXMLDevInfCallbacks@@@Z @ 31 NONAME ; class CXMLDevInfDocHandler * CXMLDevInfDocHandler::NewL(class MWBXMLDevInfCallbacks *)
	?NewL@CXMLParser@@SAPAV1@XZ @ 32 NONAME ; class CXMLParser * CXMLParser::NewL(void)
	?NewL@CXMLSyncMLDocHandler@@SAPAV1@PAVMWBXMLSyncMLCallbacks@@@Z @ 33 NONAME ; class CXMLSyncMLDocHandler * CXMLSyncMLDocHandler::NewL(class MWBXMLSyncMLCallbacks *)
	?NewLC@CWbxml2XmlConverter@@SAPAV1@XZ @ 34 NONAME ; class CWbxml2XmlConverter * CWbxml2XmlConverter::NewLC(void)
	?ParseL@CXMLParser@@QAE?AW4TWBXMLParserError@@XZ @ 35 NONAME ; enum TWBXMLParserError CXMLParser::ParseL(void)
	?Reset@CXMLGenerator@@QAEXXZ @ 36 NONAME ; void CXMLGenerator::Reset(void)
	?SetDocumentHandler@CXMLParser@@QAEXPAVMWBXMLDocumentHandler@@@Z @ 37 NONAME ; void CXMLParser::SetDocumentHandler(class MWBXMLDocumentHandler *)
	?SetDocumentL@CXMLParser@@QAEXAAVRReadStream@@@Z @ 38 NONAME ; void CXMLParser::SetDocumentL(class RReadStream &)
	?SetExtensionHandler@CXMLParser@@QAEXPAVMWBXMLExtensionHandler@@@Z @ 39 NONAME ; void CXMLParser::SetExtensionHandler(class MWBXMLExtensionHandler *)
	?SetIndentLevel@CXMLGenerator@@QAEXH@Z @ 40 NONAME ; void CXMLGenerator::SetIndentLevel(int)
	?SetNamespaceNameL@CXMLGenerator@@IAEXABVTDesC8@@W4TNSmlNamespaceAppendType@1@@Z @ 41 NONAME ; void CXMLGenerator::SetNamespaceNameL(class TDesC8 const &, enum CXMLGenerator::TNSmlNamespaceAppendType)
	?SetTranslateTableL@CXMLGenerator@@IAEXABVTDesC8@@@Z @ 42 NONAME ; void CXMLGenerator::SetTranslateTableL(class TDesC8 const &)
	?SetTruncate@CXMLSyncMLGenerator@@QAEXH@Z @ 43 NONAME ; void CXMLSyncMLGenerator::SetTruncate(int)
	?SetWorkspace@CXMLGenerator@@QAEXPAVCXMLWorkspace@@H@Z @ 44 NONAME ; void CXMLGenerator::SetWorkspace(class CXMLWorkspace *, int)
	?SwitchCodePageL@CXMLGenerator@@IAEXE@Z @ 45 NONAME ; void CXMLGenerator::SwitchCodePageL(unsigned char)
	?WasTruncated@CXMLSyncMLGenerator@@QAEHXZ @ 46 NONAME ; int CXMLSyncMLGenerator::WasTruncated(void)
	?Workspace@CXMLGenerator@@QBEPAVCXMLWorkspace@@XZ @ 47 NONAME ; class CXMLWorkspace * CXMLGenerator::Workspace(void) const
	?smlAddCmd@CXMLSyncMLGenerator@@QAEHPAUsml_generic_s@@@Z @ 48 NONAME ; int CXMLSyncMLGenerator::smlAddCmd(struct sml_generic_s *)
	?smlAlertCmd@CXMLSyncMLGenerator@@QAEHPAUsml_alert_s@@@Z @ 49 NONAME ; int CXMLSyncMLGenerator::smlAlertCmd(struct sml_alert_s *)
	?smlCopyCmd@CXMLSyncMLGenerator@@QAEHPAUsml_generic_s@@@Z @ 50 NONAME ; int CXMLSyncMLGenerator::smlCopyCmd(struct sml_generic_s *)
	?smlDeleteCmd@CXMLSyncMLGenerator@@QAEHPAUsml_generic_s@@@Z @ 51 NONAME ; int CXMLSyncMLGenerator::smlDeleteCmd(struct sml_generic_s *)
	?smlDeviceInfo@CXMLDevInfGenerator@@QAEHPAUsml_devinf_devinf_s@@@Z @ 52 NONAME ; int CXMLDevInfGenerator::smlDeviceInfo(struct sml_devinf_devinf_s *)
	?smlDeviceInfoL@CXMLSyncMLGenerator@@MAEHPAUsml_devinf_devinf_s@@@Z @ 53 NONAME ; int CXMLSyncMLGenerator::smlDeviceInfoL(struct sml_devinf_devinf_s *)
	?smlEndAtomic@CXMLSyncMLGenerator@@QAEHXZ @ 54 NONAME ; int CXMLSyncMLGenerator::smlEndAtomic(void)
	?smlEndMessage@CXMLSyncMLGenerator@@QAEHE@Z @ 55 NONAME ; int CXMLSyncMLGenerator::smlEndMessage(unsigned char)
	?smlEndSequence@CXMLSyncMLGenerator@@QAEHXZ @ 56 NONAME ; int CXMLSyncMLGenerator::smlEndSequence(void)
	?smlEndSync@CXMLSyncMLGenerator@@QAEHXZ @ 57 NONAME ; int CXMLSyncMLGenerator::smlEndSync(void)
	?smlExecCmd@CXMLSyncMLGenerator@@QAEHPAUsml_exec_s@@@Z @ 58 NONAME ; int CXMLSyncMLGenerator::smlExecCmd(struct sml_exec_s *)
	?smlGetCmd@CXMLSyncMLGenerator@@QAEHPAUsml_get_put_s@@@Z @ 59 NONAME ; int CXMLSyncMLGenerator::smlGetCmd(struct sml_get_put_s *)
	?smlMapCmd@CXMLSyncMLGenerator@@QAEHPAUsml_map_s@@@Z @ 60 NONAME ; int CXMLSyncMLGenerator::smlMapCmd(struct sml_map_s *)
	?smlMoveCmd@CXMLSyncMLGenerator@@QAEHPAUsml_generic_s@@@Z @ 61 NONAME ; int CXMLSyncMLGenerator::smlMoveCmd(struct sml_generic_s *)
	?smlPutCmd@CXMLSyncMLGenerator@@QAEHPAUsml_get_put_s@@@Z @ 62 NONAME ; int CXMLSyncMLGenerator::smlPutCmd(struct sml_get_put_s *)
	?smlReplaceCmd@CXMLSyncMLGenerator@@QAEHPAUsml_generic_s@@@Z @ 63 NONAME ; int CXMLSyncMLGenerator::smlReplaceCmd(struct sml_generic_s *)
	?smlResultsCmd@CXMLSyncMLGenerator@@QAEHPAUsml_results_s@@@Z @ 64 NONAME ; int CXMLSyncMLGenerator::smlResultsCmd(struct sml_results_s *)
	?smlStartAtomic@CXMLSyncMLGenerator@@QAEHPAUsml_atomic_s@@@Z @ 65 NONAME ; int CXMLSyncMLGenerator::smlStartAtomic(struct sml_atomic_s *)
	?smlStartMessage@CXMLSyncMLGenerator@@QAEHPAUsml_sync_hdr_s@@@Z @ 66 NONAME ; int CXMLSyncMLGenerator::smlStartMessage(struct sml_sync_hdr_s *)
	?smlStartSequence@CXMLSyncMLGenerator@@QAEHPAUsml_atomic_s@@@Z @ 67 NONAME ; int CXMLSyncMLGenerator::smlStartSequence(struct sml_atomic_s *)
	?smlStartSync@CXMLSyncMLGenerator@@QAEHPAUsml_sync_s@@@Z @ 68 NONAME ; int CXMLSyncMLGenerator::smlStartSync(struct sml_sync_s *)
	?smlStatusCmd@CXMLSyncMLGenerator@@QAEHPAUsml_status_s@@@Z @ 69 NONAME ; int CXMLSyncMLGenerator::smlStatusCmd(struct sml_status_s *)

