EXPORTS
	??0CCodeQueryDialog@@QAE@AAVTDes16@@HHH@Z @ 1 NONAME ; public: __thiscall CCodeQueryDialog::CCodeQueryDialog(class TDes16 &,int,int,int)
	??0CSecurityHandler@@QAE@AAVRMobilePhone@@@Z @ 2 NONAME ; public: __thiscall CSecurityHandler::CSecurityHandler(class RMobilePhone &)
	??0CSecuritySettings@@QAE@XZ @ 3 NONAME ; public: __thiscall CSecuritySettings::CSecuritySettings(void)
	??1CManualSecuritySettings@@UAE@XZ @ 4 NONAME ; public: virtual __thiscall CManualSecuritySettings::~CManualSecuritySettings(void)
	??1CSecurityHandler@@UAE@XZ @ 5 NONAME ; public: virtual __thiscall CSecurityHandler::~CSecurityHandler(void)
	??1CSecuritySettings@@UAE@XZ @ 6 NONAME ; public: virtual __thiscall CSecuritySettings::~CSecuritySettings(void)
	??1CSystemLock@@UAE@XZ @ 7 NONAME ; public: virtual __thiscall CSystemLock::~CSystemLock(void)
	?AskPin2L@CSecuritySettings@@QAEHXZ @ 8 NONAME ; public: int __thiscall CSecuritySettings::AskPin2L(void)
	?AskSecCodeInAutoLockL@CSecurityHandler@@QAEHXZ @ 9 NONAME ; public: int __thiscall CSecurityHandler::AskSecCodeInAutoLockL(void)
	?AskSecCodeL@CSecurityHandler@@QAEHXZ @ 10 NONAME ; public: int __thiscall CSecurityHandler::AskSecCodeL(void)
	?CancelChangePin@CManualSecuritySettings@@QAEXXZ @ 11 NONAME ; public: void __thiscall CManualSecuritySettings::CancelChangePin(void)
	?CancelLockSim@CManualSecuritySettings@@QAEXXZ @ 12 NONAME ; public: void __thiscall CManualSecuritySettings::CancelLockSim(void)
	?CancelSecCodeQuery@CSecurityHandler@@QAEXXZ @ 13 NONAME ; public: void __thiscall CSecurityHandler::CancelSecCodeQuery(void)
	?CancelUnblockPin@CManualSecuritySettings@@QAEXXZ @ 14 NONAME ; public: void __thiscall CManualSecuritySettings::CancelUnblockPin(void)
	?CancelUnlockSim@CManualSecuritySettings@@QAEXXZ @ 15 NONAME ; public: void __thiscall CManualSecuritySettings::CancelUnlockSim(void)
	?ChangeAutoLockPeriodL@CSecuritySettings@@QAEHH@Z @ 16 NONAME ; public: int __thiscall CSecuritySettings::ChangeAutoLockPeriodL(int)
	?ChangePin2L@CSecuritySettings@@QAEXXZ @ 17 NONAME ; public: void __thiscall CSecuritySettings::ChangePin2L(void)
	?ChangePinL@CManualSecuritySettings@@QAEHW4TPin@1@ABVTDesC16@@11@Z @ 18 NONAME ; public: int __thiscall CManualSecuritySettings::ChangePinL(enum CManualSecuritySettings::TPin,class TDesC16 const &,class TDesC16 const &,class TDesC16 const &)
	?ChangePinL@CSecuritySettings@@QAEXXZ @ 19 NONAME ; public: void __thiscall CSecuritySettings::ChangePinL(void)
	?ChangePinRequestL@CSecuritySettings@@QAEHXZ @ 20 NONAME ; public: int __thiscall CSecuritySettings::ChangePinRequestL(void)
	?ChangeSecCodeL@CSecuritySettings@@QAEXXZ @ 21 NONAME ; public: void __thiscall CSecuritySettings::ChangeSecCodeL(void)
	?ChangeSimSecurityL@CSecuritySettings@@QAEHXZ @ 22 NONAME ; public: int __thiscall CSecuritySettings::ChangeSimSecurityL(void)
	?ConstructL@CSecuritySettings@@QAEXXZ @ 23 NONAME ; public: void __thiscall CSecuritySettings::ConstructL(void)
	?E32Dll@@YAHW4TDllReason@@@Z @ 24 NONAME ; int __cdecl E32Dll(enum TDllReason)
	?GetFdnMode@CSecuritySettings@@QAEHAAW4TMobilePhoneFdnStatus@RMobilePhone@@@Z @ 25 NONAME ; public: int __thiscall CSecuritySettings::GetFdnMode(enum RMobilePhone::TMobilePhoneFdnStatus &)
	?HandleEventL@CSecurityHandler@@QAEXW4TMobilePhoneSecurityEvent@RMobilePhone@@@Z @ 26 NONAME ; public: void __thiscall CSecurityHandler::HandleEventL(enum RMobilePhone::TMobilePhoneSecurityEvent)
	?InitializeLibL@TSecUi@@SAXXZ @ 27 NONAME ; public: static void __cdecl TSecUi::InitializeLibL(void)
	?IsLockEnabledL@CSecuritySettings@@QAEHW4TMobilePhoneLock@RMobilePhone@@@Z @ 28 NONAME ; public: int __thiscall CSecuritySettings::IsLockEnabledL(enum RMobilePhone::TMobilePhoneLock)
	?LockSimL@CManualSecuritySettings@@QAEHABVTDesC16@@0@Z @ 29 NONAME ; public: int __thiscall CManualSecuritySettings::LockSimL(class TDesC16 const &,class TDesC16 const &)
	?NewL@CManualSecuritySettings@@SAPAV1@XZ @ 30 NONAME ; public: static class CManualSecuritySettings * __cdecl CManualSecuritySettings::NewL(void)
	?NewL@CSecuritySettings@@SAPAV1@XZ @ 31 NONAME ; public: static class CSecuritySettings * __cdecl CSecuritySettings::NewL(void)
	?NewL@CSystemLock@@SAPAV1@XZ @ 32 NONAME ; public: static class CSystemLock * __cdecl CSystemLock::NewL(void)
	?SetFdnModeL@CSecuritySettings@@QAEXXZ @ 33 NONAME ; public: void __thiscall CSecuritySettings::SetFdnModeL(void)
	?SetLockedL@CSystemLock@@QAEXXZ @ 34 NONAME ; public: void __thiscall CSystemLock::SetLockedL(void)
	?StartObserver@TObsStarter@@SAXXZ @ 35 NONAME ; public: static void __cdecl TObsStarter::StartObserver(void)
	?UnInitializeLib@TSecUi@@SAXXZ @ 36 NONAME ; public: static void __cdecl TSecUi::UnInitializeLib(void)
	?UnblockPinL@CManualSecuritySettings@@QAEHW4TPin@1@ABVTDesC16@@11@Z @ 37 NONAME ; public: int __thiscall CManualSecuritySettings::UnblockPinL(enum CManualSecuritySettings::TPin,class TDesC16 const &,class TDesC16 const &,class TDesC16 const &)
	?UnlockSimL@CManualSecuritySettings@@QAEHABVTDesC16@@0@Z @ 38 NONAME ; public: int __thiscall CManualSecuritySettings::UnlockSimL(class TDesC16 const &,class TDesC16 const &)
	?ChangeUPinL@CSecuritySettings@@QAEXXZ @ 39 NONAME ; public: void __thiscall CSecuritySettings::ChangeUPinL(void)
	?ChangeUPinRequestL@CSecuritySettings@@QAEHXZ @ 40 NONAME ; public: int __thiscall CSecuritySettings::ChangeUPinRequestL(void)
	?IsUpinActive@CSecuritySettings@@QAEHXZ @ 41 NONAME ; public: int __thiscall CSecuritySettings::IsUpinActive(void)
	?IsUpinBlocked@CSecuritySettings@@QAEHXZ @ 42 NONAME ; public: int __thiscall CSecuritySettings::IsUpinBlocked(void)
	?IsUpinSupported@CSecuritySettings@@QAEHXZ @ 43 NONAME ; public: int __thiscall CSecuritySettings::IsUpinSupported(void)
	?SwitchPinCodesL@CSecuritySettings@@QAEHXZ @ 44 NONAME ; public: int __thiscall CSecuritySettings::SwitchPinCodesL(void)

