EXPORTS
	?CancelDpsEventNotify@CDpsEngine@@QAEXXZ @ 1 NONAME ; void CDpsEngine::CancelDpsEventNotify(void)
	?CancelDpsRequest@CDpsEngine@@QAEXXZ @ 2 NONAME ; void CDpsEngine::CancelDpsRequest(void)
	?CancelPrintMode@CDpsEngine@@QAEXXZ @ 3 NONAME ; void CDpsEngine::CancelPrintMode(void)
	?ConnectStateNotify@CDpsEngine@@QAEXAAVTRequestStatus@@@Z @ 4 NONAME ; void CDpsEngine::ConnectStateNotify(class TRequestStatus &)
	?CreateReqScriptL@TDpsGetCapability@@EAEXABV?$RArray@UTDpsArg@@@@ABV?$RArray@UTDpsEle@@@@IAAVRWriteStream@@PAVCDpsTransaction@@@Z @ 5 NONAME ; void TDpsGetCapability::CreateReqScriptL(class RArray<struct TDpsArg> const &, class RArray<struct TDpsEle> const &, unsigned int, class RWriteStream &, class CDpsTransaction *)
	?CreateReqScriptL@TDpsStartJob@@EAEXABV?$RArray@UTDpsArg@@@@ABV?$RArray@UTDpsEle@@@@IAAVRWriteStream@@PAVCDpsTransaction@@@Z @ 6 NONAME ; void TDpsStartJob::CreateReqScriptL(class RArray<struct TDpsArg> const &, class RArray<struct TDpsEle> const &, unsigned int, class RWriteStream &, class CDpsTransaction *)
	?CreateReqScriptL@TMDpsOperation@@MAEXABV?$RArray@UTDpsArg@@@@ABV?$RArray@UTDpsEle@@@@IAAVRWriteStream@@PAVCDpsTransaction@@@Z @ 7 NONAME ; void TMDpsOperation::CreateReqScriptL(class RArray<struct TDpsArg> const &, class RArray<struct TDpsEle> const &, unsigned int, class RWriteStream &, class CDpsTransaction *)
	?Delete@CDpsEngine@@QAEXXZ @ 8 NONAME ; void CDpsEngine::Delete(void)
	?DoDpsRequestL@CDpsEngine@@QAEXPAVTMDpsOperation@@AAVTRequestStatus@@@Z @ 9 NONAME ; void CDpsEngine::DoDpsRequestL(class TMDpsOperation *, class TRequestStatus &)
	?DpsEventNotify@CDpsEngine@@QAEXAAVTDpsEvents@@AAVTRequestStatus@@@Z @ 10 NONAME ; void CDpsEngine::DpsEventNotify(class TDpsEvents &, class TRequestStatus &)
	?DpsFolder@CDpsEngine@@QBEABVTDesC16@@XZ @ 11 NONAME ; class TDesC16 const & CDpsEngine::DpsFolder(void) const
	?FillRepArgs@TDpsConfigPrintService@@EAEHABV?$RArray@UTDpsArg@@@@PAVCDpsTransaction@@@Z @ 12 NONAME ; int TDpsConfigPrintService::FillRepArgs(class RArray<struct TDpsArg> const &, class CDpsTransaction *)
	?FillRepArgs@TDpsGetCapability@@EAEHABV?$RArray@UTDpsArg@@@@PAVCDpsTransaction@@@Z @ 13 NONAME ; int TDpsGetCapability::FillRepArgs(class RArray<struct TDpsArg> const &, class CDpsTransaction *)
	?FillRepArgs@TDpsGetJobStatus@@EAEHABV?$RArray@UTDpsArg@@@@PAVCDpsTransaction@@@Z @ 14 NONAME ; int TDpsGetJobStatus::FillRepArgs(class RArray<struct TDpsArg> const &, class CDpsTransaction *)
	?FillRepArgs@TDpsGetPrinterStatus@@EAEHABV?$RArray@UTDpsArg@@@@PAVCDpsTransaction@@@Z @ 15 NONAME ; int TDpsGetPrinterStatus::FillRepArgs(class RArray<struct TDpsArg> const &, class CDpsTransaction *)
	?FillReqArgs@TDpsAbortJob@@EAEHAAV?$RArray@UTDpsArg@@@@AAV?$RArray@UTDpsEle@@@@AAIPAVCDpsTransaction@@@Z @ 16 NONAME ; int TDpsAbortJob::FillReqArgs(class RArray<struct TDpsArg> &, class RArray<struct TDpsEle> &, unsigned int &, class CDpsTransaction *)
	?FillReqArgs@TDpsConfigPrintService@@EAEHAAV?$RArray@UTDpsArg@@@@AAV?$RArray@UTDpsEle@@@@AAIPAVCDpsTransaction@@@Z @ 17 NONAME ; int TDpsConfigPrintService::FillReqArgs(class RArray<struct TDpsArg> &, class RArray<struct TDpsEle> &, unsigned int &, class CDpsTransaction *)
	?FillReqArgs@TDpsGetCapability@@EAEHAAV?$RArray@UTDpsArg@@@@AAV?$RArray@UTDpsEle@@@@AAIPAVCDpsTransaction@@@Z @ 18 NONAME ; int TDpsGetCapability::FillReqArgs(class RArray<struct TDpsArg> &, class RArray<struct TDpsEle> &, unsigned int &, class CDpsTransaction *)
	?FillReqArgs@TDpsStartJob@@EAEHAAV?$RArray@UTDpsArg@@@@AAV?$RArray@UTDpsEle@@@@AAIPAVCDpsTransaction@@@Z @ 19 NONAME ; int TDpsStartJob::FillReqArgs(class RArray<struct TDpsArg> &, class RArray<struct TDpsEle> &, unsigned int &, class CDpsTransaction *)
	?GetDpsConfigL@CDpsEngine@@QAEXAAVTDpsConfigPrintReq@@@Z @ 20 NONAME ; void CDpsEngine::GetDpsConfigL(class TDpsConfigPrintReq &)
	?GetEngineL@CDpsEngine@@SAPAV1@XZ @ 21 NONAME ; class CDpsEngine * CDpsEngine::GetEngineL(void)
	?GetParamNum@TDpsStartJobReq@@QAEHXZ @ 22 NONAME ; int TDpsStartJobReq::GetParamNum(void)
	?Reset@TDpsJobStatusRep@@QAEXXZ @ 23 NONAME ; void TDpsJobStatusRep::Reset(void)
	?Reset@TDpsPrintInfo@@QAEXXZ @ 24 NONAME ; void TDpsPrintInfo::Reset(void)
	?SetPrintMode@CDpsEngine@@QAEXAAVTRequestStatus@@@Z @ 25 NONAME ; void CDpsEngine::SetPrintMode(class TRequestStatus &)

