EXPORTS
	??1CPermission@@UAE@XZ @ 1 NONAME ; CPermission::~CPermission(void)
	??1CPermissionSet@@UAE@XZ @ 2 NONAME ; CPermissionSet::~CPermissionSet(void)
	??1CRTSecMgrRegisterScriptMsg@@UAE@XZ @ 3 NONAME ; CRTSecMgrRegisterScriptMsg::~CRTSecMgrRegisterScriptMsg(void)
	??1CScript@@UAE@XZ @ 4 NONAME ; CScript::~CScript(void)
	??4CScript@@QAEABV0@ABV0@@Z @ 5 NONAME ; class CScript const & CScript::operator=(class CScript const &)
	?AppendCapPermData@CPermission@@QAEXW4TCapability@@@Z @ 6 NONAME ; void CPermission::AppendCapPermData(enum TCapability)
	?AppendPermission@CPermissionSet@@QAEXAAVCPermission@@@Z @ 7 NONAME ; void CPermissionSet::AppendPermission(class CPermission &)
	?AppendUncondCap@CPermissionSet@@QAEXW4TCapability@@@Z @ 8 NONAME ; void CPermissionSet::AppendUncondCap(enum TCapability)
	?AppendUncondCapabilities@CPermissionSet@@QAEXK@Z @ 9 NONAME ; void CPermissionSet::AppendUncondCapabilities(unsigned long)
	?Capabilitilites@CPermission@@QBEXAAV?$RArray@W4TCapability@@@@@Z @ 10 NONAME ; void CPermission::Capabilitilites(class RArray<enum TCapability> &) const
	?Capability@CPermission@@QBE?AW4TCapability@@XZ @ 11 NONAME ; enum TCapability CPermission::Capability(void) const
	?Condition@CPermission@@QBE?AW4TUserPromptOption@@XZ @ 12 NONAME ; enum TUserPromptOption CPermission::Condition(void) const
	?Default@CPermission@@QBE?AW4TUserPromptOption@@XZ @ 13 NONAME ; enum TUserPromptOption CPermission::Default(void) const
	?ExternalizeL@CPermission@@QBEXAAVRWriteStream@@@Z @ 14 NONAME ; void CPermission::ExternalizeL(class RWriteStream &) const
	?ExternalizeL@CPermissionSet@@QBEXAAVRWriteStream@@@Z @ 15 NONAME ; void CPermissionSet::ExternalizeL(class RWriteStream &) const
	?ExternalizeL@CScript@@QBEXAAVRWriteStream@@@Z @ 16 NONAME ; void CScript::ExternalizeL(class RWriteStream &) const
	?InternalizeL@CPermission@@QAEXAAVRReadStream@@@Z @ 17 NONAME ; void CPermission::InternalizeL(class RReadStream &)
	?InternalizeL@CPermissionSet@@QAEXAAVRReadStream@@@Z @ 18 NONAME ; void CPermissionSet::InternalizeL(class RReadStream &)
	?InternalizeL@CScript@@QAEXAAVRReadStream@@@Z @ 19 NONAME ; void CScript::InternalizeL(class RReadStream &)
	?NewL@CPermission@@SAPAV1@ABV1@@Z @ 20 NONAME ; class CPermission * CPermission::NewL(class CPermission const &)
	?NewL@CPermission@@SAPAV1@ABV?$RArray@W4TCapability@@@@@Z @ 21 NONAME ; class CPermission * CPermission::NewL(class RArray<enum TCapability> const &)
	?NewL@CPermission@@SAPAV1@ABV?$RArray@W4TCapability@@@@W4TUserPromptOption@@1@Z @ 22 NONAME ; class CPermission * CPermission::NewL(class RArray<enum TCapability> const &, enum TUserPromptOption, enum TUserPromptOption)
	?NewL@CPermission@@SAPAV1@ABV?$RArray@W4TCapability@@@@W4TUserPromptOption@@@Z @ 23 NONAME ; class CPermission * CPermission::NewL(class RArray<enum TCapability> const &, enum TUserPromptOption)
	?NewL@CPermission@@SAPAV1@XZ @ 24 NONAME ; class CPermission * CPermission::NewL(void)
	?NewL@CPermissionSet@@SAPAV1@ABV1@@Z @ 25 NONAME ; class CPermissionSet * CPermissionSet::NewL(class CPermissionSet const &)
	?NewL@CPermissionSet@@SAPAV1@XZ @ 26 NONAME ; class CPermissionSet * CPermissionSet::NewL(void)
	?NewL@CRTSecMgrRegisterScriptMsg@@SAPAV1@HABVTDesC16@@@Z @ 27 NONAME ; class CRTSecMgrRegisterScriptMsg * CRTSecMgrRegisterScriptMsg::NewL(int, class TDesC16 const &)
	?NewL@CScript@@SAPAV1@HH@Z @ 28 NONAME ; class CScript * CScript::NewL(int, int)
	?NewLC@CPermission@@SAPAV1@ABV1@@Z @ 29 NONAME ; class CPermission * CPermission::NewLC(class CPermission const &)
	?NewLC@CPermission@@SAPAV1@ABV?$RArray@W4TCapability@@@@@Z @ 30 NONAME ; class CPermission * CPermission::NewLC(class RArray<enum TCapability> const &)
	?NewLC@CPermission@@SAPAV1@ABV?$RArray@W4TCapability@@@@W4TUserPromptOption@@1@Z @ 31 NONAME ; class CPermission * CPermission::NewLC(class RArray<enum TCapability> const &, enum TUserPromptOption, enum TUserPromptOption)
	?NewLC@CPermission@@SAPAV1@ABV?$RArray@W4TCapability@@@@W4TUserPromptOption@@@Z @ 32 NONAME ; class CPermission * CPermission::NewLC(class RArray<enum TCapability> const &, enum TUserPromptOption)
	?NewLC@CPermission@@SAPAV1@XZ @ 33 NONAME ; class CPermission * CPermission::NewLC(void)
	?NewLC@CPermissionSet@@SAPAV1@ABV1@@Z @ 34 NONAME ; class CPermissionSet * CPermissionSet::NewLC(class CPermissionSet const &)
	?NewLC@CPermissionSet@@SAPAV1@XZ @ 35 NONAME ; class CPermissionSet * CPermissionSet::NewLC(void)
	?NewLC@CRTSecMgrRegisterScriptMsg@@SAPAV1@ABVTDesC8@@@Z @ 36 NONAME ; class CRTSecMgrRegisterScriptMsg * CRTSecMgrRegisterScriptMsg::NewLC(class TDesC8 const &)
	?NewLC@CRTSecMgrRegisterScriptMsg@@SAPAV1@HABVTDesC16@@@Z @ 37 NONAME ; class CRTSecMgrRegisterScriptMsg * CRTSecMgrRegisterScriptMsg::NewLC(int, class TDesC16 const &)
	?NewLC@CScript@@SAPAV1@HH@Z @ 38 NONAME ; class CScript * CScript::NewLC(int, int)
	?PackMsgL@CRTSecMgrRegisterScriptMsg@@QBEPAVHBufC8@@XZ @ 39 NONAME ; class HBufC8 * CRTSecMgrRegisterScriptMsg::PackMsgL(void) const
	?PermDenied@CScript@@QBEKXZ @ 40 NONAME ; unsigned long CScript::PermDenied(void) const
	?PermGranted@CScript@@QBEKXZ @ 41 NONAME ; unsigned long CScript::PermGranted(void) const
	?PermName@CPermission@@QBEABVTDesC16@@XZ @ 42 NONAME ; class TDesC16 const & CPermission::PermName(void) const
	?PermissionData@CPermission@@QBEKXZ @ 43 NONAME ; unsigned long CPermission::PermissionData(void) const
	?PermissionSet@CScript@@QAEAAVCPermissionSet@@XZ @ 44 NONAME ; class CPermissionSet & CScript::PermissionSet(void)
	?PermissionSet@CScript@@QBEABVCPermissionSet@@XZ @ 45 NONAME ; class CPermissionSet const & CScript::PermissionSet(void) const
	?Permissions@CPermissionSet@@QAEAAV?$RPointerArray@VCPermission@@@@XZ @ 46 NONAME ; class RPointerArray<class CPermission> & CPermissionSet::Permissions(void)
	?Permissions@CPermissionSet@@QBEABV?$RPointerArray@VCPermission@@@@XZ @ 47 NONAME ; class RPointerArray<class CPermission> const & CPermissionSet::Permissions(void) const
	?PolicyID@CScript@@QBEHXZ @ 48 NONAME ; int CScript::PolicyID(void) const
	?ScriptID@CScript@@QBEHXZ @ 49 NONAME ; int CScript::ScriptID(void) const
	?SetCondition@CPermission@@QAEXW4TUserPromptOption@@@Z @ 50 NONAME ; void CPermission::SetCondition(enum TUserPromptOption)
	?SetDefault@CPermission@@QAEXW4TUserPromptOption@@@Z @ 51 NONAME ; void CPermission::SetDefault(enum TUserPromptOption)
	?SetPermDenied@CScript@@QAEXK@Z @ 52 NONAME ; void CScript::SetPermDenied(unsigned long)
	?SetPermGranted@CScript@@QAEXK@Z @ 53 NONAME ; void CScript::SetPermGranted(unsigned long)
	?SetPermName@CPermission@@QAEXABVTDesC16@@@Z @ 54 NONAME ; void CPermission::SetPermName(class TDesC16 const &)
	?SetPermissionData@CPermission@@QAEXK@Z @ 55 NONAME ; void CPermission::SetPermissionData(unsigned long)
	?SetPermissionSet@CScript@@QAEXABVCPermissionSet@@@Z @ 56 NONAME ; void CScript::SetPermissionSet(class CPermissionSet const &)
	?UnconditionalCaps@CPermissionSet@@QBEKXZ @ 57 NONAME ; unsigned long CPermissionSet::UnconditionalCaps(void) const
	?UnconditionalCaps@CPermissionSet@@QBEXAAV?$RArray@W4TCapability@@@@@Z @ 58 NONAME ; void CPermissionSet::UnconditionalCaps(class RArray<enum TCapability> &) const
	?PermDenied@CScript@@QAEXAAV?$RArray@VTUid@@@@@Z @ 59 NONAME ; void CScript::PermDenied(class RArray<class TUid> &)
	?PermGranted@CScript@@QAEXAAV?$RArray@VTUid@@@@@Z @ 60 NONAME ; void CScript::PermGranted(class RArray<class TUid> &)
	?SetPermDenied@CScript@@QAEXV?$RArray@VTUid@@@@@Z @ 61 NONAME ; void CScript::SetPermDenied(class RArray<class TUid>)
	?SetPermGranted@CScript@@QAEXV?$RArray@VTUid@@@@@Z @ 62 NONAME ; void CScript::SetPermGranted(class RArray<class TUid>)
	??1CRTPermGrantMessage@@UAE@XZ @ 63 NONAME ; CRTPermGrantMessage::~CRTPermGrantMessage(void)
	?AllowedProviders@CRTPermGrantMessage@@QAEXAAV?$RArray@VTUid@@@@@Z @ 64 NONAME ; void CRTPermGrantMessage::AllowedProviders(class RArray<class TUid> &)
	?DeniedProviders@CRTPermGrantMessage@@QAEXAAV?$RArray@VTUid@@@@@Z @ 65 NONAME ; void CRTPermGrantMessage::DeniedProviders(class RArray<class TUid> &)
	?NewL@CRTPermGrantMessage@@SAPAV1@ABVTDesC8@@@Z @ 66 NONAME ; class CRTPermGrantMessage * CRTPermGrantMessage::NewL(class TDesC8 const &)
	?NewL@CRTPermGrantMessage@@SAPAV1@V?$RArray@VTUid@@@@0H@Z @ 67 NONAME ; class CRTPermGrantMessage * CRTPermGrantMessage::NewL(class RArray<class TUid>, class RArray<class TUid>, int)
	?NewL@CRTPermGrantMessage@@SAPAV1@XZ @ 68 NONAME ; class CRTPermGrantMessage * CRTPermGrantMessage::NewL(void)
	?NewLC@CRTPermGrantMessage@@SAPAV1@ABVTDesC8@@@Z @ 69 NONAME ; class CRTPermGrantMessage * CRTPermGrantMessage::NewLC(class TDesC8 const &)
	?NewLC@CRTPermGrantMessage@@SAPAV1@V?$RArray@VTUid@@@@0H@Z @ 70 NONAME ; class CRTPermGrantMessage * CRTPermGrantMessage::NewLC(class RArray<class TUid>, class RArray<class TUid>, int)
	?NewLC@CRTPermGrantMessage@@SAPAV1@XZ @ 71 NONAME ; class CRTPermGrantMessage * CRTPermGrantMessage::NewLC(void)
	?PackMessageL@CRTPermGrantMessage@@QAEPAVHBufC8@@XZ @ 72 NONAME ; class HBufC8 * CRTPermGrantMessage::PackMessageL(void)
	?ScriptID@CRTPermGrantMessage@@QAEHXZ @ 73 NONAME ; int CRTPermGrantMessage::ScriptID(void)
	?setAllowedProviders@CRTPermGrantMessage@@QAEXV?$RArray@VTUid@@@@@Z @ 74 NONAME ; void CRTPermGrantMessage::setAllowedProviders(class RArray<class TUid>)
	?setDeniedProviders@CRTPermGrantMessage@@QAEXV?$RArray@VTUid@@@@@Z @ 75 NONAME ; void CRTPermGrantMessage::setDeniedProviders(class RArray<class TUid>)
	?setScriptID@CRTPermGrantMessage@@QAEXH@Z @ 76 NONAME ; void CRTPermGrantMessage::setScriptID(int)

