EXPORTS
	?AllowSpecificPasscodeString@RTerminalControlSession@@QAEHABVTDesC8@@@Z @ 1 NONAME ; int RTerminalControlSession::AllowSpecificPasscodeString(class TDesC8 const &)
	?ClearSpecificPasscodeStrings@RTerminalControlSession@@QAEHXZ @ 2 NONAME ; int RTerminalControlSession::ClearSpecificPasscodeStrings(void)
	?Close@RTerminalControl3rdPartySession@@QAEXXZ @ 3 NONAME ; void RTerminalControl3rdPartySession::Close(void)
	?Close@RTerminalControl@@QAEXXZ @ 4 NONAME ; void RTerminalControl::Close(void)
	?Close@RTerminalControlSession@@QAEXXZ @ 5 NONAME ; void RTerminalControlSession::Close(void)
	?Connect@RTerminalControl@@QAEHXZ @ 6 NONAME ; int RTerminalControl::Connect(void)
	?DeleteFile@RTerminalControlSession@@QAEHABVTDesC8@@@Z @ 7 NONAME ; int RTerminalControlSession::DeleteFile(class TDesC8 const &)
	?DeviceWipe@RTerminalControlSession@@QAEHXZ @ 8 NONAME ; int RTerminalControlSession::DeviceWipe(void)
	?DisallowSpecificPasscodeString@RTerminalControlSession@@QAEHABVTDesC8@@@Z @ 9 NONAME ; int RTerminalControlSession::DisallowSpecificPasscodeString(class TDesC8 const &)
	?FileScan@RTerminalControlSession@@QAEHABVTDesC8@@H@Z @ 10 NONAME ; int RTerminalControlSession::FileScan(class TDesC8 const &, int)
	?FileScanResultsL@RTerminalControlSession@@QAEHPAVCBufFlat@@@Z @ 11 NONAME ; int RTerminalControlSession::FileScanResultsL(class CBufFlat *)
	?FileScanResultsSize@RTerminalControlSession@@QAEHAAH@Z @ 12 NONAME ; int RTerminalControlSession::FileScanResultsSize(int &)
	?FileScanResultsSize@RTerminalControlSession@@QAEHAAVTDes8@@@Z @ 13 NONAME ; int RTerminalControlSession::FileScanResultsSize(class TDes8 &)
	?GetAutolockPeriod@RTerminalControlSession@@QAEHAAJ@Z @ 14 NONAME ; int RTerminalControlSession::GetAutolockPeriod(long &)
	?GetDeviceLockCode@RTerminalControlSession@@QAEHAAVTDesC8@@@Z @ 15 NONAME ; int RTerminalControlSession::GetDeviceLockCode(class TDesC8 &)
	?GetDeviceLockLevel@RTerminalControlSession@@QAEHAAJ@Z @ 16 NONAME ; int RTerminalControlSession::GetDeviceLockLevel(long &)
	?GetDeviceLockParameter@RTerminalControl3rdPartySession@@QAEHHAAVTDes8@@@Z @ 17 NONAME ; int RTerminalControl3rdPartySession::GetDeviceLockParameter(int, class TDes8 &)
	?GetDeviceLockParameterSize@RTerminalControl3rdPartySession@@QAEHH@Z @ 18 NONAME ; int RTerminalControl3rdPartySession::GetDeviceLockParameterSize(int)
	?GetMaxAutolockPeriod@RTerminalControlSession@@QAEHAAJ@Z @ 19 NONAME ; int RTerminalControlSession::GetMaxAutolockPeriod(long &)
	?GetPasscodeCheckSpecificStrings@RTerminalControlSession@@QAEHAAH@Z @ 20 NONAME ; int RTerminalControlSession::GetPasscodeCheckSpecificStrings(int &)
	?GetPasscodeConsecutiveNumbers@RTerminalControlSession@@QAEHAAH@Z @ 21 NONAME ; int RTerminalControlSession::GetPasscodeConsecutiveNumbers(int &)
	?GetPasscodeExpiration@RTerminalControlSession@@QAEHAAJ@Z @ 22 NONAME ; int RTerminalControlSession::GetPasscodeExpiration(long &)
	?GetPasscodeHistoryBuffer@RTerminalControlSession@@QAEHAAJ@Z @ 23 NONAME ; int RTerminalControlSession::GetPasscodeHistoryBuffer(long &)
	?GetPasscodeMaxAttempts@RTerminalControlSession@@QAEHAAJ@Z @ 24 NONAME ; int RTerminalControlSession::GetPasscodeMaxAttempts(long &)
	?GetPasscodeMaxLength@RTerminalControlSession@@QAEHAAJ@Z @ 25 NONAME ; int RTerminalControlSession::GetPasscodeMaxLength(long &)
	?GetPasscodeMaxRepeatedCharacters@RTerminalControlSession@@QAEHAAJ@Z @ 26 NONAME ; int RTerminalControlSession::GetPasscodeMaxRepeatedCharacters(long &)
	?GetPasscodeMinChangeInterval@RTerminalControlSession@@QAEHAAJ@Z @ 27 NONAME ; int RTerminalControlSession::GetPasscodeMinChangeInterval(long &)
	?GetPasscodeMinChangeTolerance@RTerminalControlSession@@QAEHAAJ@Z @ 28 NONAME ; int RTerminalControlSession::GetPasscodeMinChangeTolerance(long &)
	?GetPasscodeMinLength@RTerminalControlSession@@QAEHAAJ@Z @ 29 NONAME ; int RTerminalControlSession::GetPasscodeMinLength(long &)
	?GetPasscodeRequireCharsAndNumbers@RTerminalControlSession@@QAEHAAH@Z @ 30 NONAME ; int RTerminalControlSession::GetPasscodeRequireCharsAndNumbers(int &)
	?GetPasscodeRequireUpperAndLower@RTerminalControlSession@@QAEHAAH@Z @ 31 NONAME ; int RTerminalControlSession::GetPasscodeRequireUpperAndLower(int &)
	?GetProcessDataL@RTerminalControlSession@@QAEHPAVCBufFlat@@ABVTDesC8@@1@Z @ 32 NONAME ; int RTerminalControlSession::GetProcessDataL(class CBufFlat *, class TDesC8 const &, class TDesC8 const &)
	?GetProcessListL@RTerminalControlSession@@QAEHPAVCBufFlat@@@Z @ 33 NONAME ; int RTerminalControlSession::GetProcessListL(class CBufFlat *)
	?GetProcessListSize@RTerminalControlSession@@QAEHAAH@Z @ 34 NONAME ; int RTerminalControlSession::GetProcessListSize(int &)
	?GetProcessListSize@RTerminalControlSession@@QAEHAAVTDes8@@@Z @ 35 NONAME ; int RTerminalControlSession::GetProcessListSize(class TDes8 &)
	?Open@RTerminalControl3rdPartySession@@QAEHAAVRTerminalControl@@@Z @ 36 NONAME ; int RTerminalControl3rdPartySession::Open(class RTerminalControl &)
	?Open@RTerminalControlSession@@QAEHAAVRTerminalControl@@AAVTCertInfo@@@Z @ 37 NONAME ; int RTerminalControlSession::Open(class RTerminalControl &, class TCertInfo &)
	?RebootDevice@RTerminalControlSession@@QAEHH@Z @ 38 NONAME ; int RTerminalControlSession::RebootDevice(int)
	?SetAutolockPeriod@RTerminalControlSession@@QAEHJ@Z @ 39 NONAME ; int RTerminalControlSession::SetAutolockPeriod(long)
	?SetDeviceLockCode@RTerminalControlSession@@QAEHABVTDesC8@@@Z @ 40 NONAME ; int RTerminalControlSession::SetDeviceLockCode(class TDesC8 const &)
	?SetDeviceLockLevel@RTerminalControlSession@@QAEHJ@Z @ 41 NONAME ; int RTerminalControlSession::SetDeviceLockLevel(long)
	?SetDeviceLockParameter@RTerminalControl3rdPartySession@@QAEHHABVTDesC8@@@Z @ 42 NONAME ; int RTerminalControl3rdPartySession::SetDeviceLockParameter(int, class TDesC8 const &)
	?SetMaxAutolockPeriod@RTerminalControlSession@@QAEHJ@Z @ 43 NONAME ; int RTerminalControlSession::SetMaxAutolockPeriod(long)
	?SetPasscodeCheckSpecificStrings@RTerminalControlSession@@QAEHH@Z @ 44 NONAME ; int RTerminalControlSession::SetPasscodeCheckSpecificStrings(int)
	?SetPasscodeConsecutiveNumbers@RTerminalControlSession@@QAEHH@Z @ 45 NONAME ; int RTerminalControlSession::SetPasscodeConsecutiveNumbers(int)
	?SetPasscodeExpiration@RTerminalControlSession@@QAEHJ@Z @ 46 NONAME ; int RTerminalControlSession::SetPasscodeExpiration(long)
	?SetPasscodeHistoryBuffer@RTerminalControlSession@@QAEHJ@Z @ 47 NONAME ; int RTerminalControlSession::SetPasscodeHistoryBuffer(long)
	?SetPasscodeMaxAttempts@RTerminalControlSession@@QAEHJ@Z @ 48 NONAME ; int RTerminalControlSession::SetPasscodeMaxAttempts(long)
	?SetPasscodeMaxLength@RTerminalControlSession@@QAEHJ@Z @ 49 NONAME ; int RTerminalControlSession::SetPasscodeMaxLength(long)
	?SetPasscodeMaxRepeatedCharacters@RTerminalControlSession@@QAEHJ@Z @ 50 NONAME ; int RTerminalControlSession::SetPasscodeMaxRepeatedCharacters(long)
	?SetPasscodeMinChangeInterval@RTerminalControlSession@@QAEHJ@Z @ 51 NONAME ; int RTerminalControlSession::SetPasscodeMinChangeInterval(long)
	?SetPasscodeMinChangeTolerance@RTerminalControlSession@@QAEHJ@Z @ 52 NONAME ; int RTerminalControlSession::SetPasscodeMinChangeTolerance(long)
	?SetPasscodeMinLength@RTerminalControlSession@@QAEHJ@Z @ 53 NONAME ; int RTerminalControlSession::SetPasscodeMinLength(long)
	?SetPasscodeRequireCharsAndNumbers@RTerminalControlSession@@QAEHH@Z @ 54 NONAME ; int RTerminalControlSession::SetPasscodeRequireCharsAndNumbers(int)
	?SetPasscodeRequireUpperAndLower@RTerminalControlSession@@QAEHH@Z @ 55 NONAME ; int RTerminalControlSession::SetPasscodeRequireUpperAndLower(int)
	?StartNewProcess@RTerminalControlSession@@QAEHHABVTDesC8@@@Z @ 56 NONAME ; int RTerminalControlSession::StartNewProcess(int, class TDesC8 const &)
	?StopProcess@RTerminalControlSession@@QAEHHABVTDesC8@@@Z @ 57 NONAME ; int RTerminalControlSession::StopProcess(int, class TDesC8 const &)

