EXPORTS
	?SetParamValue@RSCPClient@@QAEHHAAVTDes16@@K@Z @ 1 NONAME ; int RSCPClient::SetParamValue(int, class TDes16 &, unsigned long)
	?GetParamValue@RSCPClient@@QAEHHAAVTDes16@@@Z @ 2 NONAME ; int RSCPClient::GetParamValue(int, class TDes16 &)
	?StoreLockcode@RSCPClient@@QAEHAAVTDesC16@@0AAV?$RArray@W4TDevicelockPolicies@@@@@Z @ 3 NONAME ; int RSCPClient::StoreLockcode(class TDesC16 &, class TDesC16 &, class RArray<enum TDevicelockPolicies> &)
	?StoreCode@RSCPClient@@QAEHAAV?$TBuf@$07@@@Z @ 4 NONAME ; int RSCPClient::StoreCode(class TBuf<8> &)
	?SetPhoneLock@RSCPClient@@QAEHH@Z @ 5 NONAME ; int RSCPClient::SetPhoneLock(int)
	?NewLC@CSCPParamObject@@SAPAV1@XZ @ 6 NONAME ; class CSCPParamObject * CSCPParamObject::NewLC(void)
	?GetLockState@RSCPClient@@QAEHAAH@Z @ 7 NONAME ; int RSCPClient::GetLockState(int &)
	?WriteToFileL@CSCPParamObject@@QAEXAAVTDesC16@@PAVRFs@@@Z @ 8 NONAME ; void CSCPParamObject::WriteToFileL(class TDesC16 &, class RFs *)
	?SetParamValue@RSCPClient@@QAEHHAAVTDes16@@@Z @ 9 NONAME ; int RSCPClient::SetParamValue(int, class TDes16 &)
	?Set@CSCPParamObject@@QAEHHH@Z @ 10 NONAME ; int CSCPParamObject::Set(int, int)
	?PerformCleanupL@RSCPClient@@QAEHAAV?$RArray@VTUid@@@@@Z @ 11 NONAME ; int RSCPClient::PerformCleanupL(class RArray<class TUid> &)
	?Unset@CSCPParamObject@@QAEHH@Z @ 12 NONAME ; int CSCPParamObject::Unset(int)
	?Connect@RSCPClient@@QAEHXZ @ 13 NONAME ; int RSCPClient::Connect(void)
	?AddtoFailedPolices@CSCPParamObject@@QAEHH@Z @ 14 NONAME ; int CSCPParamObject::AddtoFailedPolices(int)
	?Reset@CSCPParamObject@@QAEHXZ @ 15 NONAME ; int CSCPParamObject::Reset(void)
	?Parse@CSCPParamObject@@QAEHAAVTDes8@@@Z @ 16 NONAME ; int CSCPParamObject::Parse(class TDes8 &)
	?IsLockcodeChangeAllowedNow@RSCPClient@@QAEHAAV?$RArray@W4TDevicelockPolicies@@@@@Z @ 17 NONAME ; int RSCPClient::IsLockcodeChangeAllowedNow(class RArray<enum TDevicelockPolicies> &)
	?QueryAdminCmd@RSCPClient@@QAEHW4TSCPAdminCommand@@@Z @ 18 NONAME ; int RSCPClient::QueryAdminCmd(enum TSCPAdminCommand)
	?CheckConfiguration@RSCPClient@@QAEHH@Z @ 19 NONAME ; int RSCPClient::CheckConfiguration(int)
	?VerifyNewLockcodeAgainstPolicies@RSCPClient@@QAEHAAVTDesC16@@AAV?$RArray@W4TDevicelockPolicies@@@@@Z @ 20 NONAME ; int RSCPClient::VerifyNewLockcodeAgainstPolicies(class TDesC16 &, class RArray<enum TDevicelockPolicies> &)
	?GetCode@RSCPClient@@QAEHAAV?$TBuf@$07@@@Z @ 21 NONAME ; int RSCPClient::GetCode(class TBuf<8> &)
	??0RSCPClient@@QAE@XZ @ 22 NONAME ; RSCPClient::RSCPClient(void)
	??1CSCPParamObject@@UAE@XZ @ 23 NONAME ; CSCPParamObject::~CSCPParamObject(void)
	?Get@CSCPParamObject@@QAEHHAAVTDes16@@@Z @ 24 NONAME ; int CSCPParamObject::Get(int, class TDes16 &)
	?NewL@CSCPParamObject@@SAPAV1@XZ @ 25 NONAME ; class CSCPParamObject * CSCPParamObject::NewL(void)
	?GetBuffer@CSCPParamObject@@QAEHAAPAVHBufC8@@@Z @ 26 NONAME ; int CSCPParamObject::GetBuffer(class HBufC8 * &)
	?GetPolicies@RSCPClient@@QAEHAAV?$RArray@H@@@Z @ 27 NONAME ; int RSCPClient::GetPolicies(class RArray<int> &)
	?Set@CSCPParamObject@@QAEHHAAVTDes16@@@Z @ 28 NONAME ; int CSCPParamObject::Set(int, class TDes16 &)
	?GetParamLength@CSCPParamObject@@QAEHH@Z @ 29 NONAME ; int CSCPParamObject::GetParamLength(int)
	?VerifyCurrentLockcode@RSCPClient@@QAEHAAVTDesC16@@AAV?$TBuf@$09@@AAV?$RArray@W4TDevicelockPolicies@@@@H@Z @ 30 NONAME ; int RSCPClient::VerifyCurrentLockcode(class TDesC16 &, class TBuf<10> &, class RArray<enum TDevicelockPolicies> &, int)
	?Version@RSCPClient@@QBE?AVTVersion@@XZ @ 31 NONAME ; class TVersion RSCPClient::Version(void) const
	?Get@CSCPParamObject@@QAEHHAAH@Z @ 32 NONAME ; int CSCPParamObject::Get(int, int &)
	?ReadFromFileL@CSCPParamObject@@QAEXAAVTDesC16@@PAVRFs@@@Z @ 33 NONAME ; void CSCPParamObject::ReadFromFileL(class TDesC16 &, class RFs *)
	?GetFailedPolices@CSCPParamObject@@QAEABV?$RArray@H@@XZ @ 34 NONAME ; class RArray<int> const & CSCPParamObject::GetFailedPolices(void)
	?SetAutoLockPeriod@RSCPClient@@QAEHH@Z @ 35 NONAME ; int RSCPClient::SetAutoLockPeriod(int)
	?ChangeCode@RSCPClient@@QAEHAAVTDes16@@@Z @ 36 NONAME ; int RSCPClient::ChangeCode(class TDes16 &)

