EXPORTS
	_ZN16CPTPIPInitCmdAck21SetDeviceFriendlyNameER7TDesC16 @ 1 NONAME
	_ZN16CPTPIPInitCmdAck4NewLEv @ 2 NONAME
	_ZN16CPTPIPInitCmdAckC1Ev @ 3 NONAME
	_ZN16CPTPIPInitCmdAckC2Ev @ 4 NONAME
	_ZN16CPTPIPInitCmdAckD0Ev @ 5 NONAME
	_ZN16CPTPIPInitCmdAckD1Ev @ 6 NONAME
	_ZN16CPTPIPInitCmdAckD2Ev @ 7 NONAME
	_ZN16TPTPIPInitEvtAckC1Ev @ 8 NONAME
	_ZN16TPTPIPInitEvtAckC2Ev @ 9 NONAME
	_ZN16TPTPIPInitFailedC1Ev @ 10 NONAME
	_ZN16TPTPIPInitFailedC2Ev @ 11 NONAME
	_ZN19CPTPIPDataContainer11SetPayloadLEP8MMTPType @ 12 NONAME
	_ZN19CPTPIPDataContainer4NewLEv @ 13 NONAME
	_ZN19CPTPIPDataContainerD0Ev @ 14 NONAME
	_ZN19CPTPIPDataContainerD1Ev @ 15 NONAME
	_ZN19CPTPIPDataContainerD2Ev @ 16 NONAME
	_ZN20CPTPIPInitCmdRequest12CommitChunkLER5TPtr8 @ 17 NONAME
	_ZN20CPTPIPInitCmdRequest14NextWriteChunkER5TPtr8 @ 18 NONAME
	_ZN20CPTPIPInitCmdRequest15FirstWriteChunkER5TPtr8 @ 19 NONAME
	_ZN20CPTPIPInitCmdRequest16HostFriendlyNameEv @ 20 NONAME
	_ZN20CPTPIPInitCmdRequest4NewLEv @ 21 NONAME
	_ZN20CPTPIPInitCmdRequestC1Ev @ 22 NONAME
	_ZN20CPTPIPInitCmdRequestC2Ev @ 23 NONAME
	_ZN20CPTPIPInitCmdRequestD0Ev @ 24 NONAME
	_ZN20CPTPIPInitCmdRequestD1Ev @ 25 NONAME
	_ZN20CPTPIPInitCmdRequestD2Ev @ 26 NONAME
	_ZN20TPTPIPInitEvtRequestC1Ev @ 27 NONAME
	_ZN20TPTPIPInitEvtRequestC2Ev @ 28 NONAME
	_ZN22CPTPIPGenericContainer11SetPayloadLEP8MMTPType @ 29 NONAME
	_ZN22CPTPIPGenericContainer4NewLEv @ 30 NONAME
	_ZN22CPTPIPGenericContainerD0Ev @ 31 NONAME
	_ZN22CPTPIPGenericContainerD1Ev @ 32 NONAME
	_ZN22CPTPIPGenericContainerD2Ev @ 33 NONAME
	_ZN24TPTPIPTypeRequestPayload12CommitChunkLER5TPtr8 @ 34 NONAME
	_ZN24TPTPIPTypeRequestPayload5ResetEv @ 35 NONAME
	_ZN24TPTPIPTypeRequestPayload6CopyInERK16TMTPTypeFlatBasejjij @ 36 NONAME
	_ZN24TPTPIPTypeRequestPayload7CopyOutER16TMTPTypeFlatBasejj @ 37 NONAME
	_ZN24TPTPIPTypeRequestPayload9SetUint16Eit @ 38 NONAME
	_ZN24TPTPIPTypeRequestPayload9SetUint32Eim @ 39 NONAME
	_ZN24TPTPIPTypeRequestPayloadC1Ev @ 40 NONAME
	_ZN24TPTPIPTypeRequestPayloadC2Ev @ 41 NONAME
	_ZN25TPTPIPTypeResponsePayload12CommitChunkLER5TPtr8 @ 42 NONAME
	_ZN25TPTPIPTypeResponsePayload5ResetEv @ 43 NONAME
	_ZN25TPTPIPTypeResponsePayload6CopyInERK16TMTPTypeFlatBasejjij @ 44 NONAME
	_ZN25TPTPIPTypeResponsePayload7CopyOutER16TMTPTypeFlatBasejj @ 45 NONAME
	_ZN25TPTPIPTypeResponsePayload9SetUint16Eit @ 46 NONAME
	_ZN25TPTPIPTypeResponsePayload9SetUint32Eim @ 47 NONAME
	_ZN25TPTPIPTypeResponsePayloadC1Ev @ 48 NONAME
	_ZN25TPTPIPTypeResponsePayloadC2Ev @ 49 NONAME
	_ZN26TPTPIPTypeStartDataPayload12CommitChunkLER5TPtr8 @ 50 NONAME
	_ZN26TPTPIPTypeStartDataPayload5ResetEv @ 51 NONAME
	_ZN26TPTPIPTypeStartDataPayload9SetUint32Eim @ 52 NONAME
	_ZN26TPTPIPTypeStartDataPayload9SetUint64Eiy @ 53 NONAME
	_ZN26TPTPIPTypeStartDataPayloadC1Ev @ 54 NONAME
	_ZN26TPTPIPTypeStartDataPayloadC2Ev @ 55 NONAME
	_ZNK16CPTPIPInitCmdAck13NextReadChunkER6TPtrC8 @ 56 NONAME
	_ZNK16CPTPIPInitCmdAck14FirstReadChunkER6TPtrC8 @ 57 NONAME
	_ZNK16CPTPIPInitCmdAck4SizeEv @ 58 NONAME
	_ZNK16CPTPIPInitCmdAck4TypeEv @ 59 NONAME
	_ZNK16TPTPIPInitEvtAck11ElementInfoEi @ 60 NONAME
	_ZNK16TPTPIPInitEvtAck4TypeEv @ 61 NONAME
	_ZNK16TPTPIPInitFailed11ElementInfoEi @ 62 NONAME
	_ZNK16TPTPIPInitFailed4TypeEv @ 63 NONAME
	_ZNK19CPTPIPDataContainer4TypeEv @ 64 NONAME
	_ZNK19CPTPIPDataContainer7PayloadEv @ 65 NONAME
	_ZNK20CPTPIPInitCmdRequest4TypeEv @ 66 NONAME
	_ZNK20TPTPIPInitEvtRequest11ElementInfoEi @ 67 NONAME
	_ZNK20TPTPIPInitEvtRequest4TypeEv @ 68 NONAME
	_ZNK22CPTPIPGenericContainer4TypeEv @ 69 NONAME
	_ZNK22CPTPIPGenericContainer7PayloadEv @ 70 NONAME
	_ZNK24TPTPIPTypeRequestPayload11ElementInfoEi @ 71 NONAME
	_ZNK24TPTPIPTypeRequestPayload13NumParametersEv @ 72 NONAME
	_ZNK24TPTPIPTypeRequestPayload14CommitRequiredEv @ 73 NONAME
	_ZNK24TPTPIPTypeRequestPayload14FirstReadChunkER6TPtrC8 @ 74 NONAME
	_ZNK24TPTPIPTypeRequestPayload4SizeEv @ 75 NONAME
	_ZNK24TPTPIPTypeRequestPayload4TypeEv @ 76 NONAME
	_ZNK24TPTPIPTypeRequestPayload6Uint16Ei @ 77 NONAME
	_ZNK24TPTPIPTypeRequestPayload6Uint32Ei @ 78 NONAME
	_ZNK25TPTPIPTypeResponsePayload11ElementInfoEi @ 79 NONAME
	_ZNK25TPTPIPTypeResponsePayload13NumParametersEv @ 80 NONAME
	_ZNK25TPTPIPTypeResponsePayload14CommitRequiredEv @ 81 NONAME
	_ZNK25TPTPIPTypeResponsePayload14FirstReadChunkER6TPtrC8 @ 82 NONAME
	_ZNK25TPTPIPTypeResponsePayload4SizeEv @ 83 NONAME
	_ZNK25TPTPIPTypeResponsePayload4TypeEv @ 84 NONAME
	_ZNK25TPTPIPTypeResponsePayload6Uint16Ei @ 85 NONAME
	_ZNK25TPTPIPTypeResponsePayload6Uint32Ei @ 86 NONAME
	_ZNK26TPTPIPTypeStartDataPayload11ElementInfoEi @ 87 NONAME
	_ZNK26TPTPIPTypeStartDataPayload14CommitRequiredEv @ 88 NONAME
	_ZNK26TPTPIPTypeStartDataPayload14FirstReadChunkER6TPtrC8 @ 89 NONAME
	_ZNK26TPTPIPTypeStartDataPayload4SizeEv @ 90 NONAME
	_ZNK26TPTPIPTypeStartDataPayload4TypeEv @ 91 NONAME
	_ZNK26TPTPIPTypeStartDataPayload6Uint32Ei @ 92 NONAME
	_ZNK26TPTPIPTypeStartDataPayload6Uint64Ei @ 93 NONAME
	_ZTI16CPTPIPInitCmdAck @ 94 NONAME
	_ZTI16TPTPIPInitEvtAck @ 95 NONAME
	_ZTI16TPTPIPInitFailed @ 96 NONAME
	_ZTI19CPTPIPDataContainer @ 97 NONAME
	_ZTI20CPTPIPInitCmdRequest @ 98 NONAME
	_ZTI20TPTPIPInitEvtRequest @ 99 NONAME
	_ZTI22CPTPIPGenericContainer @ 100 NONAME
	_ZTI24TPTPIPTypeRequestPayload @ 101 NONAME
	_ZTI25TPTPIPTypeResponsePayload @ 102 NONAME
	_ZTI26TPTPIPTypeStartDataPayload @ 103 NONAME
	_ZTV16CPTPIPInitCmdAck @ 104 NONAME
	_ZTV16TPTPIPInitEvtAck @ 105 NONAME
	_ZTV16TPTPIPInitFailed @ 106 NONAME
	_ZTV19CPTPIPDataContainer @ 107 NONAME
	_ZTV20CPTPIPInitCmdRequest @ 108 NONAME
	_ZTV20TPTPIPInitEvtRequest @ 109 NONAME
	_ZTV22CPTPIPGenericContainer @ 110 NONAME
	_ZTV24TPTPIPTypeRequestPayload @ 111 NONAME
	_ZTV25TPTPIPTypeResponsePayload @ 112 NONAME
	_ZTV26TPTPIPTypeStartDataPayload @ 113 NONAME
	_ZThn4_N20CPTPIPInitCmdRequest12CommitChunkLER5TPtr8 @ 114 NONAME
	_ZThn4_N20CPTPIPInitCmdRequest14NextWriteChunkER5TPtr8 @ 115 NONAME
	_ZThn4_N20CPTPIPInitCmdRequest15FirstWriteChunkER5TPtr8 @ 116 NONAME
	_ZThn4_NK16CPTPIPInitCmdAck13NextReadChunkER6TPtrC8 @ 117 NONAME
	_ZThn4_NK16CPTPIPInitCmdAck14FirstReadChunkER6TPtrC8 @ 118 NONAME
	_ZThn4_NK16CPTPIPInitCmdAck4SizeEv @ 119 NONAME
	_ZThn4_NK16CPTPIPInitCmdAck4TypeEv @ 120 NONAME
	_ZThn4_NK19CPTPIPDataContainer4TypeEv @ 121 NONAME
	_ZThn4_NK20CPTPIPInitCmdRequest4TypeEv @ 122 NONAME
	_ZThn4_NK22CPTPIPGenericContainer4TypeEv @ 123 NONAME
	_ZN19CPTPIPDataContainer15FirstWriteChunkER5TPtr8 @ 124 NONAME
	_ZThn4_N19CPTPIPDataContainer15FirstWriteChunkER5TPtr8 @ 125 NONAME
	_ZN19CPTPIPDataContainer12CommitChunkLER5TPtr8 @ 126 NONAME
	_ZThn4_N19CPTPIPDataContainer12CommitChunkLER5TPtr8 @ 127 NONAME

