EXPORTS
	_ZN12CCMSSequence16DecodeSequenceLCERK6TDesC8 @ 1 NONAME
	_ZN12CCMSSequence16DecodeSequenceLCERK6TDesC8ii @ 2 NONAME
	_ZN12CCMSSequence18CreateDerEncodingLEP12CASN1EncBase @ 3 NONAME
	_ZN13CCMSAttribute10ConstructLERK7TDesC16RK11CDesC8Array @ 4 NONAME
	_ZN13CCMSAttribute10ConstructLERK7TDesC16RK6TDesC8 @ 5 NONAME
	_ZN13CCMSAttribute10ConstructLEv @ 6 NONAME
	_ZN13CCMSAttribute17SetAttributeTypeLERK7TDesC16 @ 7 NONAME
	_ZN13CCMSAttribute19SetAttributeValuesLERK11CDesC8Array @ 8 NONAME
	_ZN13CCMSAttribute4NewLERK7TDesC16RK11CDesC8Array @ 9 NONAME
	_ZN13CCMSAttribute4NewLERK7TDesC16RK6TDesC8 @ 10 NONAME
	_ZN13CCMSAttribute4NewLEv @ 11 NONAME
	_ZN13CCMSAttribute5NewLCERK7TDesC16RK11CDesC8Array @ 12 NONAME
	_ZN13CCMSAttribute5NewLCERK7TDesC16RK6TDesC8 @ 13 NONAME
	_ZN13CCMSAttribute5NewLCEv @ 14 NONAME
	_ZN13CCMSAttributeC1Ev @ 15 NONAME
	_ZN13CCMSAttributeC2Ev @ 16 NONAME
	_ZN14CCMSSignedData10ConstructLERK9CArrayPtrI27CCMSX509AlgorithmIdentifierERK27CCMSEncapsulatedContentInfoRKS0_I14CCMSSignerInfoEPKS0_I22CCMSCertificateChoicesEPKS0_I23CCMSX509CertificateListE @ 17 NONAME
	_ZN14CCMSSignedData10ConstructLEv @ 18 NONAME
	_ZN14CCMSSignedData15SetSignerInfosLERK9CArrayPtrI14CCMSSignerInfoE @ 19 NONAME
	_ZN14CCMSSignedData16SetCertificatesLEPK9CArrayPtrI22CCMSCertificateChoicesE @ 20 NONAME
	_ZN14CCMSSignedData23SetRevokedCertificatesLEPK9CArrayPtrI23CCMSX509CertificateListE @ 21 NONAME
	_ZN14CCMSSignedData27SetEncapsulatedContentInfoLERK27CCMSEncapsulatedContentInfo @ 22 NONAME
	_ZN14CCMSSignedData30SetDigestAlgorithmIdentifiersLERK9CArrayPtrI27CCMSX509AlgorithmIdentifierE @ 23 NONAME
	_ZN14CCMSSignedData5NewLCERK9CArrayPtrI27CCMSX509AlgorithmIdentifierERK27CCMSEncapsulatedContentInfoRKS0_I14CCMSSignerInfoE @ 24 NONAME
	_ZN14CCMSSignedData5NewLCERK9CArrayPtrI27CCMSX509AlgorithmIdentifierERK27CCMSEncapsulatedContentInfoRKS0_I14CCMSSignerInfoEPKS0_I22CCMSCertificateChoicesEPKS0_I23CCMSX509CertificateListE @ 25 NONAME
	_ZN14CCMSSignedData5NewLCEv @ 26 NONAME
	_ZN14CCMSSignedDataC1Ev @ 27 NONAME
	_ZN14CCMSSignedDataC2Ev @ 28 NONAME
	_ZN14CCMSSignerInfo10ConstructLERK19CCMSX509CertificateRK6TDesC8 @ 29 NONAME
	_ZN14CCMSSignerInfo10ConstructLERK6TDesC8S2_S2_ @ 30 NONAME
	_ZN14CCMSSignerInfo15SetCertificateLERK19CCMSX509Certificate @ 31 NONAME
	_ZN14CCMSSignerInfo18SetCertificateUrlLERK6TDesC8S2_ @ 32 NONAME
	_ZN14CCMSSignerInfo18SetSignatureValueLERK6TDesC8 @ 33 NONAME
	_ZN14CCMSSignerInfo20SetSignedAttributesLERK7TDesC16RK6TDesC8RK5TTimePS4_ @ 34 NONAME
	_ZN14CCMSSignerInfo22SetUnsignedAttributesLER13CArrayPtrFlatI13CCMSAttributeE @ 35 NONAME
	_ZN14CCMSSignerInfo28SetDigestAlgorithmIdentifierER27CCMSX509AlgorithmIdentifier @ 36 NONAME
	_ZN14CCMSSignerInfo31SetSignatureAlgorithmIdentifierER27CCMSX509AlgorithmIdentifier @ 37 NONAME
	_ZN14CCMSSignerInfo4NewLERK19CCMSX509CertificateRK6TDesC8 @ 38 NONAME
	_ZN14CCMSSignerInfo4NewLERK6TDesC8S2_S2_ @ 39 NONAME
	_ZN14CCMSSignerInfo4NewLEv @ 40 NONAME
	_ZN14CCMSSignerInfoC1Ev @ 41 NONAME
	_ZN14CCMSSignerInfoC2Ev @ 42 NONAME
	_ZN14CCMSX509Signed13SetEncryptedLERK6TDesC8 @ 43 NONAME
	_ZN14CCMSX509Signed23SetAlgorithmIdentifierLERK27CCMSX509AlgorithmIdentifier @ 44 NONAME
	_ZN15CCMSContentInfo10ConstructLERK7TDesC16 @ 45 NONAME
	_ZN15CCMSContentInfo10ConstructLERK7TDesC16RK6TDesC8 @ 46 NONAME
	_ZN15CCMSContentInfo10ConstructLEv @ 47 NONAME
	_ZN15CCMSContentInfo11SetContentLERK6TDesC8 @ 48 NONAME
	_ZN15CCMSContentInfo15SetContentTypeLERK7TDesC16 @ 49 NONAME
	_ZN15CCMSContentInfo5NewLCERK7TDesC16RK6TDesC8 @ 50 NONAME
	_ZN15CCMSContentInfo5NewLCEv @ 51 NONAME
	_ZN15CCMSContentInfoC1Ev @ 52 NONAME
	_ZN15CCMSContentInfoC2Ev @ 53 NONAME
	_ZN16CCMSX509Validity11SetNotAfterERK5TTime @ 54 NONAME
	_ZN16CCMSX509Validity12SetNotBeforeERK5TTime @ 55 NONAME
	_ZN16CCMSX509Validity4NewLERK15CValidityPeriod @ 56 NONAME
	_ZN16CCMSX509Validity4NewLERK5TTimeS2_ @ 57 NONAME
	_ZN16CCMSX509Validity4NewLEv @ 58 NONAME
	_ZN16CCMSX509ValidityC1ERK5TTimeS2_ @ 59 NONAME
	_ZN16CCMSX509ValidityC1Ev @ 60 NONAME
	_ZN16CCMSX509ValidityC2ERK5TTimeS2_ @ 61 NONAME
	_ZN16CCMSX509ValidityC2Ev @ 62 NONAME
	_ZN17CCMSKeyIdentifier10ConstructLERK6TDesC8 @ 63 NONAME
	_ZN17CCMSKeyIdentifier10ConstructLERK6TDesC8RK5TTime @ 64 NONAME
	_ZN17CCMSKeyIdentifier17SetKeyIdentifierLERK6TDesC8 @ 65 NONAME
	_ZN17CCMSKeyIdentifier4NewLERK6TDesC8 @ 66 NONAME
	_ZN17CCMSKeyIdentifier4NewLERK6TDesC8RK5TTime @ 67 NONAME
	_ZN17CCMSKeyIdentifier4NewLEv @ 68 NONAME
	_ZN17CCMSKeyIdentifier8SetDateLERK5TTime @ 69 NONAME
	_ZN17CCMSKeyIdentifierC1Ev @ 70 NONAME
	_ZN17CCMSKeyIdentifierC2Ev @ 71 NONAME
	_ZN17CCMSRecipientInfo26SetKeyEncryptionAlgorithmLERK27CCMSX509AlgorithmIdentifier @ 72 NONAME
	_ZN18CCMSOriginatorInfo4NewLEv @ 73 NONAME
	_ZN18CCMSOriginatorInfo7SetCrlsEP9CArrayPtrI23CCMSX509CertificateListE @ 74 NONAME
	_ZN18CCMSOriginatorInfo8SetCertsEP9CArrayPtrI22CCMSCertificateChoicesE @ 75 NONAME
	_ZN18CCMSOriginatorInfoC1Ev @ 76 NONAME
	_ZN18CCMSOriginatorInfoC2Ev @ 77 NONAME
	_ZN19CCMSX509Certificate10ConstructLERK16CX509Certificate @ 78 NONAME
	_ZN19CCMSX509Certificate10ConstructLERK6TDesC8RK27CCMSX509AlgorithmIdentifierRK22CX500DistinguishedNameRK16CCMSX509ValidityS8_RK28CCMSX509SubjectPublicKeyInfoS5_S2_ @ 79 NONAME
	_ZN19CCMSX509Certificate10ConstructLEv @ 80 NONAME
	_ZN19CCMSX509Certificate10SetIssuerLERK22CX500DistinguishedName @ 81 NONAME
	_ZN19CCMSX509Certificate10SetVersionEi @ 82 NONAME
	_ZN19CCMSX509Certificate11SetSubjectLERK22CX500DistinguishedName @ 83 NONAME
	_ZN19CCMSX509Certificate12SetValidityLERK16CCMSX509Validity @ 84 NONAME
	_ZN19CCMSX509Certificate13SetSignatureLERK27CCMSX509AlgorithmIdentifier @ 85 NONAME
	_ZN19CCMSX509Certificate16SetSerialNumberLERK6TDesC8 @ 86 NONAME
	_ZN19CCMSX509Certificate24SetSubjectPublicKeyInfoLERK28CCMSX509SubjectPublicKeyInfo @ 87 NONAME
	_ZN19CCMSX509Certificate26SetIssuerUniqueIdentifierLERK6TDesC8 @ 88 NONAME
	_ZN19CCMSX509Certificate27SetSubjectUniqueIdentifierLERK6TDesC8 @ 89 NONAME
	_ZN19CCMSX509Certificate4NewLERK16CX509Certificate @ 90 NONAME
	_ZN19CCMSX509Certificate4NewLERK6TDesC8RK27CCMSX509AlgorithmIdentifierRK22CX500DistinguishedNameRK16CCMSX509ValidityS8_RK28CCMSX509SubjectPublicKeyInfoS5_S2_ @ 91 NONAME
	_ZN19CCMSX509Certificate4NewLEv @ 92 NONAME
	_ZN19CCMSX509CertificateC1Ev @ 93 NONAME
	_ZN19CCMSX509CertificateC2Ev @ 94 NONAME
	_ZN19CCMSX509GeneralName10ConstructLEjRK6TDesC8 @ 95 NONAME
	_ZN19CCMSX509GeneralName4NewLEjRK6TDesC8 @ 96 NONAME
	_ZN19CCMSX509GeneralName4NewLEv @ 97 NONAME
	_ZN19CCMSX509GeneralName7SetTagLEj @ 98 NONAME
	_ZN19CCMSX509GeneralName8SetDataLERK6TDesC8 @ 99 NONAME
	_ZN19CCMSX509GeneralNameC1Ev @ 100 NONAME
	_ZN19CCMSX509GeneralNameC2Ev @ 101 NONAME
	_ZN20CCMSKEKRecipientInfo10ConstructLERK17CCMSKeyIdentifierRK27CCMSX509AlgorithmIdentifierRK6TDesC8 @ 102 NONAME
	_ZN20CCMSKEKRecipientInfo16SetEncryptedKeyLERK6TDesC8 @ 103 NONAME
	_ZN20CCMSKEKRecipientInfo4NewLERK17CCMSKeyIdentifierRK27CCMSX509AlgorithmIdentifierRK6TDesC8 @ 104 NONAME
	_ZN20CCMSKEKRecipientInfo4NewLEv @ 105 NONAME
	_ZN20CCMSKEKRecipientInfo5NewLCEv @ 106 NONAME
	_ZN20CCMSKEKRecipientInfo9SetKekidLERK17CCMSKeyIdentifier @ 107 NONAME
	_ZN20CCMSKEKRecipientInfoC1Ev @ 108 NONAME
	_ZN20CCMSKEKRecipientInfoC2Ev @ 109 NONAME
	_ZN20CCMSX509GeneralNames10ConstructLERK9CArrayPtrI19CCMSX509GeneralNameE @ 110 NONAME
	_ZN20CCMSX509GeneralNames16SetGeneralNamesLERK9CArrayPtrI19CCMSX509GeneralNameE @ 111 NONAME
	_ZN20CCMSX509GeneralNames4NewLERK9CArrayPtrI19CCMSX509GeneralNameE @ 112 NONAME
	_ZN20CCMSX509GeneralNames4NewLERKS_ @ 113 NONAME
	_ZN20CCMSX509GeneralNames4NewLEv @ 114 NONAME
	_ZN20CCMSX509GeneralNamesC1Ev @ 115 NONAME
	_ZN20CCMSX509GeneralNamesC2Ev @ 116 NONAME
	_ZN20CCMSX509IssuerSerial10ConstructLERK20CCMSX509GeneralNames @ 117 NONAME
	_ZN20CCMSX509IssuerSerial10ConstructLERK20CCMSX509GeneralNamesRK6TDesC8 @ 118 NONAME
	_ZN20CCMSX509IssuerSerial10SetIssuerLERK20CCMSX509GeneralNames @ 119 NONAME
	_ZN20CCMSX509IssuerSerial13SetIssuerUIDLERK6TDesC8 @ 120 NONAME
	_ZN20CCMSX509IssuerSerial4NewLERK20CCMSX509GeneralNamesi @ 121 NONAME
	_ZN20CCMSX509IssuerSerial4NewLERK20CCMSX509GeneralNamesiRK6TDesC8 @ 122 NONAME
	_ZN20CCMSX509IssuerSerial4NewLEv @ 123 NONAME
	_ZN20CCMSX509IssuerSerial9SetSerialEi @ 124 NONAME
	_ZN20CCMSX509IssuerSerialC1Ei @ 125 NONAME
	_ZN20CCMSX509IssuerSerialC2Ei @ 126 NONAME
	_ZN21CCMSAuthenticatedData10ConstructLEP9CArrayPtrI17CCMSRecipientInfoEP27CCMSX509AlgorithmIdentifierP27CCMSEncapsulatedContentInfoRK6TDesC8 @ 127 NONAME
	_ZN21CCMSAuthenticatedData10ConstructLEv @ 128 NONAME
	_ZN21CCMSAuthenticatedData10SetVersionEi @ 129 NONAME
	_ZN21CCMSAuthenticatedData16SetMacAlgorithmLEP27CCMSX509AlgorithmIdentifier @ 130 NONAME
	_ZN21CCMSAuthenticatedData18SetOriginatorInfoLEP18CCMSOriginatorInfo @ 131 NONAME
	_ZN21CCMSAuthenticatedData18SetRecipientInfosLEP9CArrayPtrI17CCMSRecipientInfoE @ 132 NONAME
	_ZN21CCMSAuthenticatedData19SetDigestAlgorithmLEP27CCMSX509AlgorithmIdentifier @ 133 NONAME
	_ZN21CCMSAuthenticatedData20SetEncapContentInfoLEP27CCMSEncapsulatedContentInfo @ 134 NONAME
	_ZN21CCMSAuthenticatedData27SetAuthenticatedAttributesLEP9CArrayPtrI13CCMSAttributeE @ 135 NONAME
	_ZN21CCMSAuthenticatedData29SetUnauthenticatedAttributesLEP9CArrayPtrI13CCMSAttributeE @ 136 NONAME
	_ZN21CCMSAuthenticatedData5NewLCEP9CArrayPtrI17CCMSRecipientInfoEP27CCMSX509AlgorithmIdentifierP27CCMSEncapsulatedContentInfoRK6TDesC8 @ 137 NONAME
	_ZN21CCMSAuthenticatedData5NewLCEv @ 138 NONAME
	_ZN21CCMSAuthenticatedData7SetMacLERK6TDesC8 @ 139 NONAME
	_ZN21CCMSAuthenticatedDataC1Ev @ 140 NONAME
	_ZN21CCMSAuthenticatedDataC2Ev @ 141 NONAME
	_ZN22CCMSCertificateChoices10ConstructLERK19CCMSX509Certificate @ 142 NONAME
	_ZN22CCMSCertificateChoices10ConstructLERK28CCMSX509AttributeCertificate @ 143 NONAME
	_ZN22CCMSCertificateChoices12SetAttrCertLERK28CCMSX509AttributeCertificate @ 144 NONAME
	_ZN22CCMSCertificateChoices15SetCertificateLERK19CCMSX509Certificate @ 145 NONAME
	_ZN22CCMSCertificateChoices4NewLERK19CCMSX509Certificate @ 146 NONAME
	_ZN22CCMSCertificateChoices4NewLERK28CCMSX509AttributeCertificate @ 147 NONAME
	_ZN22CCMSCertificateChoices4NewLEv @ 148 NONAME
	_ZN22CCMSCertificateChoices5NewLCERK19CCMSX509Certificate @ 149 NONAME
	_ZN22CCMSCertificateChoices5NewLCERK28CCMSX509AttributeCertificate @ 150 NONAME
	_ZN22CCMSCertificateChoices5NewLCEv @ 151 NONAME
	_ZN22CCMSCertificateChoicesC1Ev @ 152 NONAME
	_ZN22CCMSCertificateChoicesC2Ev @ 153 NONAME
	_ZN23CCMSOriginatorPublicKey10ConstructLERK27CCMSX509AlgorithmIdentifierRK6TDesC8 @ 154 NONAME
	_ZN23CCMSOriginatorPublicKey13SetAlgorithmLERK27CCMSX509AlgorithmIdentifier @ 155 NONAME
	_ZN23CCMSOriginatorPublicKey13SetPublicKeyLERK6TDesC8 @ 156 NONAME
	_ZN23CCMSOriginatorPublicKey4NewLERK27CCMSX509AlgorithmIdentifierRK6TDesC8 @ 157 NONAME
	_ZN23CCMSOriginatorPublicKey4NewLERKS_ @ 158 NONAME
	_ZN23CCMSOriginatorPublicKey4NewLEv @ 159 NONAME
	_ZN23CCMSOriginatorPublicKey5NewLCERK27CCMSX509AlgorithmIdentifierRK6TDesC8 @ 160 NONAME
	_ZN23CCMSOriginatorPublicKey5NewLCERKS_ @ 161 NONAME
	_ZN23CCMSOriginatorPublicKeyC1Ev @ 162 NONAME
	_ZN23CCMSOriginatorPublicKeyC2Ev @ 163 NONAME
	_ZN23CCMSX509CertificateList10ConstructLERK16CX509CertificateRK13CArrayPtrFlatIS0_E @ 164 NONAME
	_ZN23CCMSX509CertificateList10ConstructLEv @ 165 NONAME
	_ZN23CCMSX509CertificateList14SetParametersLER33CCMSX509CertificateListParameters @ 166 NONAME
	_ZN23CCMSX509CertificateList5NewLCER33CCMSX509CertificateListParameters @ 167 NONAME
	_ZN23CCMSX509CertificateList5NewLCERK16CX509CertificateRK13CArrayPtrFlatIS0_E @ 168 NONAME
	_ZN23CCMSX509CertificateList5NewLCEv @ 169 NONAME
	_ZN23CCMSX509CertificateListC1Ev @ 170 NONAME
	_ZN23CCMSX509CertificateListC2Ev @ 171 NONAME
	_ZN25CCMSIssuerAndSerialNumber10ConstructLERK22CX500DistinguishedNameRK6TDesC8 @ 172 NONAME
	_ZN25CCMSIssuerAndSerialNumber14SetIssuerNameLERK22CX500DistinguishedName @ 173 NONAME
	_ZN25CCMSIssuerAndSerialNumber16SetSerialNumberLERK6TDesC8 @ 174 NONAME
	_ZN25CCMSIssuerAndSerialNumber4NewLERK22CX500DistinguishedNameRK6TDesC8 @ 175 NONAME
	_ZN25CCMSIssuerAndSerialNumber4NewLEv @ 176 NONAME
	_ZN25CCMSIssuerAndSerialNumberC1Ev @ 177 NONAME
	_ZN25CCMSIssuerAndSerialNumberC2Ev @ 178 NONAME
	_ZN25CCMSKeyAgreeRecipientInfo10ConstructLERK29CCMSOriginatorIdentifierOrKeyRK27CCMSX509AlgorithmIdentifierRK9CArrayPtrI25CCMSRecipientEncryptedKeyE @ 179 NONAME
	_ZN25CCMSKeyAgreeRecipientInfo10ConstructLERK29CCMSOriginatorIdentifierOrKeyRK6TDesC8RK27CCMSX509AlgorithmIdentifierRK9CArrayPtrI25CCMSRecipientEncryptedKeyE @ 180 NONAME
	_ZN25CCMSKeyAgreeRecipientInfo10ConstructLEv @ 181 NONAME
	_ZN25CCMSKeyAgreeRecipientInfo14SetOriginatorLERK29CCMSOriginatorIdentifierOrKey @ 182 NONAME
	_ZN25CCMSKeyAgreeRecipientInfo22SetUserKeyingMaterialLERK6TDesC8 @ 183 NONAME
	_ZN25CCMSKeyAgreeRecipientInfo26SetRecipientEncryptedKeysLERK9CArrayPtrI25CCMSRecipientEncryptedKeyE @ 184 NONAME
	_ZN25CCMSKeyAgreeRecipientInfo4NewLERK29CCMSOriginatorIdentifierOrKeyRK27CCMSX509AlgorithmIdentifierRK9CArrayPtrI25CCMSRecipientEncryptedKeyE @ 185 NONAME
	_ZN25CCMSKeyAgreeRecipientInfo4NewLERK29CCMSOriginatorIdentifierOrKeyRK6TDesC8RK27CCMSX509AlgorithmIdentifierRK9CArrayPtrI25CCMSRecipientEncryptedKeyE @ 186 NONAME
	_ZN25CCMSKeyAgreeRecipientInfo4NewLEv @ 187 NONAME
	_ZN25CCMSKeyAgreeRecipientInfo5NewLCEv @ 188 NONAME
	_ZN25CCMSKeyAgreeRecipientInfoC1Ev @ 189 NONAME
	_ZN25CCMSKeyAgreeRecipientInfoC2Ev @ 190 NONAME
	_ZN25CCMSKeyTransRecipientInfo10ConstructLERK25CCMSIssuerAndSerialNumberRK27CCMSX509AlgorithmIdentifierRK6TDesC8 @ 191 NONAME
	_ZN25CCMSKeyTransRecipientInfo10ConstructLERK6TDesC8RK27CCMSX509AlgorithmIdentifierS2_ @ 192 NONAME
	_ZN25CCMSKeyTransRecipientInfo16SetEncryptedKeyLERK6TDesC8 @ 193 NONAME
	_ZN25CCMSKeyTransRecipientInfo24SetSubjectKeyIdentifierLERK6TDesC8 @ 194 NONAME
	_ZN25CCMSKeyTransRecipientInfo25SetIssuerAndSerialNumberLERK25CCMSIssuerAndSerialNumber @ 195 NONAME
	_ZN25CCMSKeyTransRecipientInfo4NewLERK25CCMSIssuerAndSerialNumberRK27CCMSX509AlgorithmIdentifierRK6TDesC8 @ 196 NONAME
	_ZN25CCMSKeyTransRecipientInfo4NewLERK6TDesC8RK27CCMSX509AlgorithmIdentifierS2_ @ 197 NONAME
	_ZN25CCMSKeyTransRecipientInfo4NewLEv @ 198 NONAME
	_ZN25CCMSKeyTransRecipientInfo5NewLCERK6TDesC8RK27CCMSX509AlgorithmIdentifierS2_ @ 199 NONAME
	_ZN25CCMSKeyTransRecipientInfo5NewLCEv @ 200 NONAME
	_ZN25CCMSKeyTransRecipientInfoC1Ei @ 201 NONAME
	_ZN25CCMSKeyTransRecipientInfoC2Ei @ 202 NONAME
	_ZN25CCMSRecipientEncryptedKey10ConstructLERK17CCMSKeyIdentifierRK6TDesC8 @ 203 NONAME
	_ZN25CCMSRecipientEncryptedKey10ConstructLERK25CCMSIssuerAndSerialNumberRK6TDesC8 @ 204 NONAME
	_ZN25CCMSRecipientEncryptedKey10SetRKeyIdLERK17CCMSKeyIdentifier @ 205 NONAME
	_ZN25CCMSRecipientEncryptedKey16SetEncryptedKeyLERK6TDesC8 @ 206 NONAME
	_ZN25CCMSRecipientEncryptedKey25SetIssuerAndSerialNumberLERK25CCMSIssuerAndSerialNumber @ 207 NONAME
	_ZN25CCMSRecipientEncryptedKey4NewLERK17CCMSKeyIdentifierRK6TDesC8 @ 208 NONAME
	_ZN25CCMSRecipientEncryptedKey4NewLERK25CCMSIssuerAndSerialNumberRK6TDesC8 @ 209 NONAME
	_ZN25CCMSRecipientEncryptedKey4NewLEv @ 210 NONAME
	_ZN25CCMSRecipientEncryptedKeyC1Ev @ 211 NONAME
	_ZN25CCMSRecipientEncryptedKeyC2Ev @ 212 NONAME
	_ZN26CCMSX509RevokedCertificateC1Ev @ 213 NONAME
	_ZN26CCMSX509RevokedCertificateC2Ev @ 214 NONAME
	_ZN27CCMSEncapsulatedContentInfo10ConstructLERK7TDesC16PK6TDesC8 @ 215 NONAME
	_ZN27CCMSEncapsulatedContentInfo10ConstructLEv @ 216 NONAME
	_ZN27CCMSEncapsulatedContentInfo11SetContentLEPK6TDesC8 @ 217 NONAME
	_ZN27CCMSEncapsulatedContentInfo4NewLERK7TDesC16PK6TDesC8 @ 218 NONAME
	_ZN27CCMSEncapsulatedContentInfo4NewLEv @ 219 NONAME
	_ZN27CCMSEncapsulatedContentInfo5NewLCERK7TDesC16PK6TDesC8 @ 220 NONAME
	_ZN27CCMSEncapsulatedContentInfo5NewLCEv @ 221 NONAME
	_ZN27CCMSEncapsulatedContentInfoC1Ev @ 222 NONAME
	_ZN27CCMSEncapsulatedContentInfoC2Ev @ 223 NONAME
	_ZN27CCMSX509AlgorithmIdentifier10ConstructLERK12TAlgorithmId @ 224 NONAME
	_ZN27CCMSX509AlgorithmIdentifier10ConstructLERK20CAlgorithmIdentifier @ 225 NONAME
	_ZN27CCMSX509AlgorithmIdentifier19SetDigestAlgorithmLEPK20CAlgorithmIdentifier @ 226 NONAME
	_ZN27CCMSX509AlgorithmIdentifier23SetAlgorithmIdentifierLERK20CAlgorithmIdentifier @ 227 NONAME
	_ZN27CCMSX509AlgorithmIdentifier4NewLERK12TAlgorithmId @ 228 NONAME
	_ZN27CCMSX509AlgorithmIdentifier4NewLERK20CAlgorithmIdentifier @ 229 NONAME
	_ZN27CCMSX509AlgorithmIdentifier4NewLERK20CAlgorithmIdentifierS2_ @ 230 NONAME
	_ZN27CCMSX509AlgorithmIdentifier4NewLEv @ 231 NONAME
	_ZN27CCMSX509AlgorithmIdentifierC1Ev @ 232 NONAME
	_ZN27CCMSX509AlgorithmIdentifierC2Ev @ 233 NONAME
	_ZN28CCMSX509AttributeCertificate10ConstructLERK32CCMSX509AttributeCertificateInfoRK27CCMSX509AlgorithmIdentifierRK6TDesC8 @ 234 NONAME
	_ZN28CCMSX509AttributeCertificate10ConstructLEv @ 235 NONAME
	_ZN28CCMSX509AttributeCertificate4NewLERK32CCMSX509AttributeCertificateInfoRK27CCMSX509AlgorithmIdentifierRK6TDesC8 @ 236 NONAME
	_ZN28CCMSX509AttributeCertificate4NewLEv @ 237 NONAME
	_ZN28CCMSX509AttributeCertificate8SetInfoLERK32CCMSX509AttributeCertificateInfo @ 238 NONAME
	_ZN28CCMSX509AttributeCertificateC1Ev @ 239 NONAME
	_ZN28CCMSX509AttributeCertificateC2Ev @ 240 NONAME
	_ZN28CCMSX509SubjectPublicKeyInfo10ConstructLERK21CSubjectPublicKeyInfo @ 241 NONAME
	_ZN28CCMSX509SubjectPublicKeyInfo10ConstructLERK27CCMSX509AlgorithmIdentifierRK6TDesC8 @ 242 NONAME
	_ZN28CCMSX509SubjectPublicKeyInfo10ConstructLEv @ 243 NONAME
	_ZN28CCMSX509SubjectPublicKeyInfo13SetAlgorithmLERK27CCMSX509AlgorithmIdentifier @ 244 NONAME
	_ZN28CCMSX509SubjectPublicKeyInfo20SetSubjectPublicKeyLERK6TDesC8 @ 245 NONAME
	_ZN28CCMSX509SubjectPublicKeyInfo4NewLERK21CSubjectPublicKeyInfo @ 246 NONAME
	_ZN28CCMSX509SubjectPublicKeyInfo4NewLERK27CCMSX509AlgorithmIdentifierRK6TDesC8 @ 247 NONAME
	_ZN28CCMSX509SubjectPublicKeyInfo4NewLEv @ 248 NONAME
	_ZN28CCMSX509SubjectPublicKeyInfoC1Ev @ 249 NONAME
	_ZN28CCMSX509SubjectPublicKeyInfoC2Ev @ 250 NONAME
	_ZN29CCMSOriginatorIdentifierOrKey10ConstructLERK23CCMSOriginatorPublicKey @ 251 NONAME
	_ZN29CCMSOriginatorIdentifierOrKey10ConstructLERK25CCMSIssuerAndSerialNumber @ 252 NONAME
	_ZN29CCMSOriginatorIdentifierOrKey10ConstructLERK6TDesC8 @ 253 NONAME
	_ZN29CCMSOriginatorIdentifierOrKey17SetOriginatorKeyLERK23CCMSOriginatorPublicKey @ 254 NONAME
	_ZN29CCMSOriginatorIdentifierOrKey24SetSubjectKeyIdentifierLERK6TDesC8 @ 255 NONAME
	_ZN29CCMSOriginatorIdentifierOrKey25SetIssuerAndSerialNumberLERK25CCMSIssuerAndSerialNumber @ 256 NONAME
	_ZN29CCMSOriginatorIdentifierOrKey4NewLERK23CCMSOriginatorPublicKey @ 257 NONAME
	_ZN29CCMSOriginatorIdentifierOrKey4NewLERK25CCMSIssuerAndSerialNumber @ 258 NONAME
	_ZN29CCMSOriginatorIdentifierOrKey4NewLERK6TDesC8 @ 259 NONAME
	_ZN29CCMSOriginatorIdentifierOrKey4NewLEv @ 260 NONAME
	_ZN29CCMSOriginatorIdentifierOrKeyC1Ev @ 261 NONAME
	_ZN29CCMSOriginatorIdentifierOrKeyC2Ev @ 262 NONAME
	_ZN32CCMSX509AttributeCertificateInfo10ConstructLERK20CCMSX509GeneralNamesS2_RK27CCMSX509AlgorithmIdentifieriRK5TTimeS8_RK9CArrayPtrI13CCMSAttributeE @ 263 NONAME
	_ZN32CCMSX509AttributeCertificateInfo10ConstructLERK20CCMSX509IssuerSerialRK20CCMSX509GeneralNamesRK27CCMSX509AlgorithmIdentifieriRK5TTimeSB_RK9CArrayPtrI13CCMSAttributeE @ 264 NONAME
	_ZN32CCMSX509AttributeCertificateInfo10ConstructLEv @ 265 NONAME
	_ZN32CCMSX509AttributeCertificateInfo10SetIssuerLERK20CCMSX509GeneralNames @ 266 NONAME
	_ZN32CCMSX509AttributeCertificateInfo10SetVersionEi @ 267 NONAME
	_ZN32CCMSX509AttributeCertificateInfo13SetSignatureLERK27CCMSX509AlgorithmIdentifier @ 268 NONAME
	_ZN32CCMSX509AttributeCertificateInfo14SetAttributesLERK9CArrayPtrI13CCMSAttributeE @ 269 NONAME
	_ZN32CCMSX509AttributeCertificateInfo15SetSerialNumberEi @ 270 NONAME
	_ZN32CCMSX509AttributeCertificateInfo15SetSubjectNameLERK20CCMSX509GeneralNames @ 271 NONAME
	_ZN32CCMSX509AttributeCertificateInfo16SetNotAfterTimeLERK5TTime @ 272 NONAME
	_ZN32CCMSX509AttributeCertificateInfo17SetNotBeforeTimeLERK5TTime @ 273 NONAME
	_ZN32CCMSX509AttributeCertificateInfo18SetIssuerUniqueIDLERK6TDesC8 @ 274 NONAME
	_ZN32CCMSX509AttributeCertificateInfo21SetBaseCertificateIDLERK20CCMSX509IssuerSerial @ 275 NONAME
	_ZN32CCMSX509AttributeCertificateInfo4NewLERK20CCMSX509GeneralNamesS2_RK27CCMSX509AlgorithmIdentifieriRK5TTimeS8_RK9CArrayPtrI13CCMSAttributeE @ 276 NONAME
	_ZN32CCMSX509AttributeCertificateInfo4NewLERK20CCMSX509IssuerSerialRK20CCMSX509GeneralNamesRK27CCMSX509AlgorithmIdentifieriRK5TTimeSB_RK9CArrayPtrI13CCMSAttributeE @ 277 NONAME
	_ZN32CCMSX509AttributeCertificateInfo4NewLEv @ 278 NONAME
	_ZN32CCMSX509AttributeCertificateInfoC1Ev @ 279 NONAME
	_ZN32CCMSX509AttributeCertificateInfoC2Ev @ 280 NONAME
	_ZN33CCMSX509CertificateListParametersC1Ev @ 281 NONAME
	_ZN33CCMSX509CertificateListParametersC2Ev @ 282 NONAME
	_ZNK13CCMSAttribute13AttributeTypeEv @ 283 NONAME
	_ZNK13CCMSAttribute15AttributeValuesEv @ 284 NONAME
	_ZNK14CCMSSignedData11SignerInfosEv @ 285 NONAME
	_ZNK14CCMSSignedData12CertificatesEv @ 286 NONAME
	_ZNK14CCMSSignedData19RevokedCertificatesEv @ 287 NONAME
	_ZNK14CCMSSignedData23EncapsulatedContentInfoEv @ 288 NONAME
	_ZNK14CCMSSignedData26DigestAlgorithmIdentifiersEv @ 289 NONAME
	_ZNK14CCMSSignedData7VersionEv @ 290 NONAME
	_ZNK14CCMSSignerInfo10CMSVersionEv @ 291 NONAME
	_ZNK14CCMSSignerInfo14SignatureValueEv @ 292 NONAME
	_ZNK14CCMSSignerInfo16SignedAttributesEv @ 293 NONAME
	_ZNK14CCMSSignerInfo18UnsignedAttributesEv @ 294 NONAME
	_ZNK14CCMSSignerInfo20SubjectKeyIdentifierEv @ 295 NONAME
	_ZNK14CCMSSignerInfo21IssuerAndSerialNumberEv @ 296 NONAME
	_ZNK14CCMSSignerInfo25DigestAlgorithmIdentifierEv @ 297 NONAME
	_ZNK14CCMSSignerInfo28SignatureAlgorithmIdentifierEv @ 298 NONAME
	_ZNK14CCMSX509Signed19AlgorithmIdentifierEv @ 299 NONAME
	_ZNK14CCMSX509Signed9EncryptedEv @ 300 NONAME
	_ZNK15CCMSContentInfo11ContentTypeEv @ 301 NONAME
	_ZNK15CCMSContentInfo7ContentEv @ 302 NONAME
	_ZNK16CCMSX509Validity8NotAfterEv @ 303 NONAME
	_ZNK16CCMSX509Validity9NotBeforeEv @ 304 NONAME
	_ZNK17CCMSKeyIdentifier13KeyIdentifierEv @ 305 NONAME
	_ZNK17CCMSKeyIdentifier4DateEv @ 306 NONAME
	_ZNK17CCMSRecipientInfo22KeyEncryptionAlgorithmEv @ 307 NONAME
	_ZNK17CCMSRecipientInfo7VersionEv @ 308 NONAME
	_ZNK18CCMSOriginatorInfo4CrlsEv @ 309 NONAME
	_ZNK18CCMSOriginatorInfo5CertsEv @ 310 NONAME
	_ZNK19CCMSX509Certificate12SerialNumberEv @ 311 NONAME
	_ZNK19CCMSX509Certificate20SubjectPublicKeyInfoEv @ 312 NONAME
	_ZNK19CCMSX509Certificate22IssuerUniqueIdentifierEv @ 313 NONAME
	_ZNK19CCMSX509Certificate23SubjectUniqueIdentifierEv @ 314 NONAME
	_ZNK19CCMSX509Certificate6IssuerEv @ 315 NONAME
	_ZNK19CCMSX509Certificate7SubjectEv @ 316 NONAME
	_ZNK19CCMSX509Certificate7VersionEv @ 317 NONAME
	_ZNK19CCMSX509Certificate8ValidityEv @ 318 NONAME
	_ZNK19CCMSX509Certificate9SignatureEv @ 319 NONAME
	_ZNK19CCMSX509GeneralName3TagEv @ 320 NONAME
	_ZNK19CCMSX509GeneralName4DataEv @ 321 NONAME
	_ZNK20CCMSKEKRecipientInfo12EncryptedKeyEv @ 322 NONAME
	_ZNK20CCMSKEKRecipientInfo5KekidEv @ 323 NONAME
	_ZNK20CCMSX509GeneralNames12GeneralNamesEv @ 324 NONAME
	_ZNK20CCMSX509IssuerSerial6IssuerEv @ 325 NONAME
	_ZNK20CCMSX509IssuerSerial6SerialEv @ 326 NONAME
	_ZNK20CCMSX509IssuerSerial9IssuerUIDEv @ 327 NONAME
	_ZNK21CCMSAuthenticatedData12MacAlgorithmEv @ 328 NONAME
	_ZNK21CCMSAuthenticatedData14OriginatorInfoEv @ 329 NONAME
	_ZNK21CCMSAuthenticatedData14RecipientInfosEv @ 330 NONAME
	_ZNK21CCMSAuthenticatedData15DigestAlgorithmEv @ 331 NONAME
	_ZNK21CCMSAuthenticatedData16EncapContentInfoEv @ 332 NONAME
	_ZNK21CCMSAuthenticatedData23AuthenticatedAttributesEv @ 333 NONAME
	_ZNK21CCMSAuthenticatedData25UnauthenticatedAttributesEv @ 334 NONAME
	_ZNK21CCMSAuthenticatedData3MacEv @ 335 NONAME
	_ZNK21CCMSAuthenticatedData7VersionEv @ 336 NONAME
	_ZNK22CCMSCertificateChoices11CertificateEv @ 337 NONAME
	_ZNK22CCMSCertificateChoices8AttrCertEv @ 338 NONAME
	_ZNK23CCMSOriginatorPublicKey9AlgorithmEv @ 339 NONAME
	_ZNK23CCMSOriginatorPublicKey9PublicKeyEv @ 340 NONAME
	_ZNK23CCMSX509CertificateList10ParametersEv @ 341 NONAME
	_ZNK25CCMSIssuerAndSerialNumber10IssuerNameEv @ 342 NONAME
	_ZNK25CCMSIssuerAndSerialNumber12SerialNumberEv @ 343 NONAME
	_ZNK25CCMSKeyAgreeRecipientInfo10OriginatorEv @ 344 NONAME
	_ZNK25CCMSKeyAgreeRecipientInfo18UserKeyingMaterialEv @ 345 NONAME
	_ZNK25CCMSKeyAgreeRecipientInfo22RecipientEncryptedKeysEv @ 346 NONAME
	_ZNK25CCMSKeyTransRecipientInfo12EncryptedKeyEv @ 347 NONAME
	_ZNK25CCMSKeyTransRecipientInfo20SubjectKeyIdentifierEv @ 348 NONAME
	_ZNK25CCMSKeyTransRecipientInfo21IssuerAndSerialNumberEv @ 349 NONAME
	_ZNK25CCMSRecipientEncryptedKey12EncryptedKeyEv @ 350 NONAME
	_ZNK25CCMSRecipientEncryptedKey21IssuerAndSerialNumberEv @ 351 NONAME
	_ZNK25CCMSRecipientEncryptedKey6RKeyIdEv @ 352 NONAME
	_ZNK27CCMSEncapsulatedContentInfo7ContentEv @ 353 NONAME
	_ZNK27CCMSX509AlgorithmIdentifier15DigestAlgorithmEv @ 354 NONAME
	_ZNK27CCMSX509AlgorithmIdentifier19AlgorithmIdentifierEv @ 355 NONAME
	_ZNK28CCMSX509AttributeCertificate4InfoEv @ 356 NONAME
	_ZNK28CCMSX509SubjectPublicKeyInfo16SubjectPublicKeyEv @ 357 NONAME
	_ZNK28CCMSX509SubjectPublicKeyInfo9AlgorithmEv @ 358 NONAME
	_ZNK29CCMSOriginatorIdentifierOrKey14OriginatorKeyLEv @ 359 NONAME
	_ZNK29CCMSOriginatorIdentifierOrKey21SubjectKeyIdentifierLEv @ 360 NONAME
	_ZNK29CCMSOriginatorIdentifierOrKey22IssuerAndSerialNumberLEv @ 361 NONAME
	_ZNK29CCMSOriginatorIdentifierOrKey4TypeEv @ 362 NONAME
	_ZNK32CCMSX509AttributeCertificateInfo10AttributesEv @ 363 NONAME
	_ZNK32CCMSX509AttributeCertificateInfo11SubjectNameEv @ 364 NONAME
	_ZNK32CCMSX509AttributeCertificateInfo12NotAfterTimeEv @ 365 NONAME
	_ZNK32CCMSX509AttributeCertificateInfo12SerialNumberEv @ 366 NONAME
	_ZNK32CCMSX509AttributeCertificateInfo13NotBeforeTimeEv @ 367 NONAME
	_ZNK32CCMSX509AttributeCertificateInfo14IssuerUniqueIDEv @ 368 NONAME
	_ZNK32CCMSX509AttributeCertificateInfo17BaseCertificateIDEv @ 369 NONAME
	_ZNK32CCMSX509AttributeCertificateInfo6IssuerEv @ 370 NONAME
	_ZNK32CCMSX509AttributeCertificateInfo7VersionEv @ 371 NONAME
	_ZNK32CCMSX509AttributeCertificateInfo9SignatureEv @ 372 NONAME
	_ZTI12CCMSSequence @ 373 NONAME ; #<TI>#
	_ZTI13CCMSAttribute @ 374 NONAME ; #<TI>#
	_ZTI14CCMSSignedData @ 375 NONAME ; #<TI>#
	_ZTI14CCMSSignerInfo @ 376 NONAME ; #<TI>#
	_ZTI14CCMSX509Signed @ 377 NONAME ; #<TI>#
	_ZTI15CCMSContentInfo @ 378 NONAME ; #<TI>#
	_ZTI16CCMSX509Validity @ 379 NONAME ; #<TI>#
	_ZTI17CCMSKeyIdentifier @ 380 NONAME ; #<TI>#
	_ZTI17CCMSRecipientInfo @ 381 NONAME ; #<TI>#
	_ZTI18CCMSOriginatorInfo @ 382 NONAME ; #<TI>#
	_ZTI19CCMSX509Certificate @ 383 NONAME ; #<TI>#
	_ZTI19CCMSX509GeneralName @ 384 NONAME ; #<TI>#
	_ZTI20CCMSKEKRecipientInfo @ 385 NONAME ; #<TI>#
	_ZTI20CCMSX509GeneralNames @ 386 NONAME ; #<TI>#
	_ZTI20CCMSX509IssuerSerial @ 387 NONAME ; #<TI>#
	_ZTI21CCMSAuthenticatedData @ 388 NONAME ; #<TI>#
	_ZTI22CCMSCertificateChoices @ 389 NONAME ; #<TI>#
	_ZTI23CCMSOriginatorPublicKey @ 390 NONAME ; #<TI>#
	_ZTI23CCMSX509CertificateList @ 391 NONAME ; #<TI>#
	_ZTI25CCMSIssuerAndSerialNumber @ 392 NONAME ; #<TI>#
	_ZTI25CCMSKeyAgreeRecipientInfo @ 393 NONAME ; #<TI>#
	_ZTI25CCMSKeyTransRecipientInfo @ 394 NONAME ; #<TI>#
	_ZTI25CCMSRecipientEncryptedKey @ 395 NONAME ; #<TI>#
	_ZTI26CCMSX509RevokedCertificate @ 396 NONAME ; #<TI>#
	_ZTI27CCMSEncapsulatedContentInfo @ 397 NONAME ; #<TI>#
	_ZTI27CCMSX509AlgorithmIdentifier @ 398 NONAME ; #<TI>#
	_ZTI28CCMSX509AttributeCertificate @ 399 NONAME ; #<TI>#
	_ZTI28CCMSX509SubjectPublicKeyInfo @ 400 NONAME ; #<TI>#
	_ZTI29CCMSOriginatorIdentifierOrKey @ 401 NONAME ; #<TI>#
	_ZTI32CCMSX509AttributeCertificateInfo @ 402 NONAME ; #<TI>#
	_ZTI33CCMSX509CertificateListParameters @ 403 NONAME ; #<TI>#
	_ZTV12CCMSSequence @ 404 NONAME ; #<VT>#
	_ZTV13CCMSAttribute @ 405 NONAME ; #<VT>#
	_ZTV14CCMSSignedData @ 406 NONAME ; #<VT>#
	_ZTV14CCMSSignerInfo @ 407 NONAME ; #<VT>#
	_ZTV14CCMSX509Signed @ 408 NONAME ; #<VT>#
	_ZTV15CCMSContentInfo @ 409 NONAME ; #<VT>#
	_ZTV16CCMSX509Validity @ 410 NONAME ; #<VT>#
	_ZTV17CCMSKeyIdentifier @ 411 NONAME ; #<VT>#
	_ZTV17CCMSRecipientInfo @ 412 NONAME ; #<VT>#
	_ZTV18CCMSOriginatorInfo @ 413 NONAME ; #<VT>#
	_ZTV19CCMSX509Certificate @ 414 NONAME ; #<VT>#
	_ZTV19CCMSX509GeneralName @ 415 NONAME ; #<VT>#
	_ZTV20CCMSKEKRecipientInfo @ 416 NONAME ; #<VT>#
	_ZTV20CCMSX509GeneralNames @ 417 NONAME ; #<VT>#
	_ZTV20CCMSX509IssuerSerial @ 418 NONAME ; #<VT>#
	_ZTV21CCMSAuthenticatedData @ 419 NONAME ; #<VT>#
	_ZTV22CCMSCertificateChoices @ 420 NONAME ; #<VT>#
	_ZTV23CCMSOriginatorPublicKey @ 421 NONAME ; #<VT>#
	_ZTV23CCMSX509CertificateList @ 422 NONAME ; #<VT>#
	_ZTV25CCMSIssuerAndSerialNumber @ 423 NONAME ; #<VT>#
	_ZTV25CCMSKeyAgreeRecipientInfo @ 424 NONAME ; #<VT>#
	_ZTV25CCMSKeyTransRecipientInfo @ 425 NONAME ; #<VT>#
	_ZTV25CCMSRecipientEncryptedKey @ 426 NONAME ; #<VT>#
	_ZTV26CCMSX509RevokedCertificate @ 427 NONAME ; #<VT>#
	_ZTV27CCMSEncapsulatedContentInfo @ 428 NONAME ; #<VT>#
	_ZTV27CCMSX509AlgorithmIdentifier @ 429 NONAME ; #<VT>#
	_ZTV28CCMSX509AttributeCertificate @ 430 NONAME ; #<VT>#
	_ZTV28CCMSX509SubjectPublicKeyInfo @ 431 NONAME ; #<VT>#
	_ZTV29CCMSOriginatorIdentifierOrKey @ 432 NONAME ; #<VT>#
	_ZTV32CCMSX509AttributeCertificateInfo @ 433 NONAME ; #<VT>#
	_ZTV33CCMSX509CertificateListParameters @ 434 NONAME ; #<VT>#
	_ZNK14CCMSSignerInfo24SignedAttributesEncodedLEv @ 435 NONAME

