EXPORTS
	??0CCodeQueryDialog@@QAE@AAVTDes16@@HHHH@Z @ 1 NONAME ; CCodeQueryDialog::CCodeQueryDialog(class TDes16 &, int, int, int, int)
	??0CSecurityHandler@@QAE@AAVRMobilePhone@@@Z @ 2 NONAME ; CSecurityHandler::CSecurityHandler(class RMobilePhone &)
	??0CSecuritySettings@@QAE@XZ @ 3 NONAME ; CSecuritySettings::CSecuritySettings(void)
	??1CManualSecuritySettings@@UAE@XZ @ 4 NONAME ; CManualSecuritySettings::~CManualSecuritySettings(void)
	??1CSecurityHandler@@UAE@XZ @ 5 NONAME ; CSecurityHandler::~CSecurityHandler(void)
	??1CSecuritySettings@@UAE@XZ @ 6 NONAME ; CSecuritySettings::~CSecuritySettings(void)
	??1CSystemLock@@UAE@XZ @ 7 NONAME ; CSystemLock::~CSystemLock(void)
	?AskPin2L@CSecuritySettings@@QAEHXZ @ 8 NONAME ; int CSecuritySettings::AskPin2L(void)
	?AskSecCodeInAutoLockL@CSecurityHandler@@QAEHXZ @ 9 NONAME ; int CSecurityHandler::AskSecCodeInAutoLockL(void)
	?AskSecCodeL@CSecurityHandler@@QAEHXZ @ 10 NONAME ; int CSecurityHandler::AskSecCodeL(void)
	?AskSecCodeL@CSecuritySettings@@QAEHXZ @ 11 NONAME ; int CSecuritySettings::AskSecCodeL(void)
	?CancelChangePin@CManualSecuritySettings@@QAEXXZ @ 12 NONAME ; void CManualSecuritySettings::CancelChangePin(void)
	?CancelLockSim@CManualSecuritySettings@@QAEXXZ @ 13 NONAME ; void CManualSecuritySettings::CancelLockSim(void)
	?CancelSecCodeQuery@CSecurityHandler@@QAEXXZ @ 14 NONAME ; void CSecurityHandler::CancelSecCodeQuery(void)
	?CancelUnblockPin@CManualSecuritySettings@@QAEXXZ @ 15 NONAME ; void CManualSecuritySettings::CancelUnblockPin(void)
	?CancelUnlockSim@CManualSecuritySettings@@QAEXXZ @ 16 NONAME ; void CManualSecuritySettings::CancelUnlockSim(void)
	?ChangeAutoLockPeriodL@CSecuritySettings@@QAEHH@Z @ 17 NONAME ; int CSecuritySettings::ChangeAutoLockPeriodL(int)
	?ChangePin2L@CSecuritySettings@@QAEXXZ @ 18 NONAME ; void CSecuritySettings::ChangePin2L(void)
	?ChangePinL@CManualSecuritySettings@@QAEHW4TPin@1@ABVTDesC16@@11@Z @ 19 NONAME ; int CManualSecuritySettings::ChangePinL(enum CManualSecuritySettings::TPin, class TDesC16 const &, class TDesC16 const &, class TDesC16 const &)
	?ChangePinL@CSecuritySettings@@QAEXXZ @ 20 NONAME ; void CSecuritySettings::ChangePinL(void)
	?ChangePinRequestL@CSecuritySettings@@QAEHXZ @ 21 NONAME ; int CSecuritySettings::ChangePinRequestL(void)
	?ChangeRemoteLockStatusL@CSecuritySettings@@QAEHAAHAAVTDes16@@H@Z @ 22 NONAME ; int CSecuritySettings::ChangeRemoteLockStatusL(int &, class TDes16 &, int)
	?ChangeSecCodeL@CSecuritySettings@@QAEXXZ @ 23 NONAME ; void CSecuritySettings::ChangeSecCodeL(void)
	?ChangeSimSecurityL@CSecuritySettings@@QAEHXZ @ 24 NONAME ; int CSecuritySettings::ChangeSimSecurityL(void)
	?ChangeUPinL@CSecuritySettings@@QAEXXZ @ 25 NONAME ; void CSecuritySettings::ChangeUPinL(void)
	?ChangeUPinRequestL@CSecuritySettings@@QAEHXZ @ 26 NONAME ; int CSecuritySettings::ChangeUPinRequestL(void)
	?ConstructL@CSecuritySettings@@QAEXXZ @ 27 NONAME ; void CSecuritySettings::ConstructL(void)
	?GetFdnMode@CSecuritySettings@@QAEHAAW4TMobilePhoneFdnStatus@RMobilePhone@@@Z @ 28 NONAME ; int CSecuritySettings::GetFdnMode(enum RMobilePhone::TMobilePhoneFdnStatus &)
	?HandleEventL@CSecurityHandler@@QAEXW4TMobilePhoneSecurityEvent@RMobilePhone@@@Z @ 29 NONAME ; void CSecurityHandler::HandleEventL(enum RMobilePhone::TMobilePhoneSecurityEvent)
	?HandleEventL@CSecurityHandler@@QAEXW4TMobilePhoneSecurityEvent@RMobilePhone@@AAH@Z @ 30 NONAME ; void CSecurityHandler::HandleEventL(enum RMobilePhone::TMobilePhoneSecurityEvent, int &)
	?InitializeLibL@TSecUi@@SAXXZ @ 31 NONAME ; void TSecUi::InitializeLibL(void)
	?IsLockEnabledL@CSecuritySettings@@QAEHW4TMobilePhoneLock@RMobilePhone@@@Z @ 32 NONAME ; int CSecuritySettings::IsLockEnabledL(enum RMobilePhone::TMobilePhoneLock)
	?IsUpinActive@CSecuritySettings@@QAEHXZ @ 33 NONAME ; int CSecuritySettings::IsUpinActive(void)
	?IsUpinBlocked@CSecuritySettings@@QAEHXZ @ 34 NONAME ; int CSecuritySettings::IsUpinBlocked(void)
	?IsUpinSupportedL@CSecuritySettings@@QAEHXZ @ 35 NONAME ; int CSecuritySettings::IsUpinSupportedL(void)
	?LockSimL@CManualSecuritySettings@@QAEHABVTDesC16@@0@Z @ 36 NONAME ; int CManualSecuritySettings::LockSimL(class TDesC16 const &, class TDesC16 const &)
	?NewL@CManualSecuritySettings@@SAPAV1@XZ @ 37 NONAME ; class CManualSecuritySettings * CManualSecuritySettings::NewL(void)
	?NewL@CSecuritySettings@@SAPAV1@XZ @ 38 NONAME ; class CSecuritySettings * CSecuritySettings::NewL(void)
	?NewL@CSystemLock@@SAPAV1@XZ @ 39 NONAME ; class CSystemLock * CSystemLock::NewL(void)
	?SetFdnModeL@CSecuritySettings@@QAEXXZ @ 40 NONAME ; void CSecuritySettings::SetFdnModeL(void)
	?SetLockedL@CSystemLock@@QAEXXZ @ 41 NONAME ; void CSystemLock::SetLockedL(void)
	?StartObserverL@TObsStarter@@SAXXZ @ 42 NONAME ; void TObsStarter::StartObserverL(void)
	?SwitchPinCodesL@CSecuritySettings@@QAEHXZ @ 43 NONAME ; int CSecuritySettings::SwitchPinCodesL(void)
	?UnInitializeLib@TSecUi@@SAXXZ @ 44 NONAME ; void TSecUi::UnInitializeLib(void)
	?UnblockPinL@CManualSecuritySettings@@QAEHW4TPin@1@ABVTDesC16@@11@Z @ 45 NONAME ; int CManualSecuritySettings::UnblockPinL(enum CManualSecuritySettings::TPin, class TDesC16 const &, class TDesC16 const &, class TDesC16 const &)
	?UnlockSimL@CManualSecuritySettings@@QAEHABVTDesC16@@0@Z @ 46 NONAME ; int CManualSecuritySettings::UnlockSimL(class TDesC16 const &, class TDesC16 const &)
	?HandleEventL@CSecurityHandler@@QAEXW4TMobilePhoneSecurityEvent@RMobilePhone@@HAAH@Z @ 47 NONAME ; void CSecurityHandler::HandleEventL(enum RMobilePhone::TMobilePhoneSecurityEvent, int, int &)
	?DisplayPermanentNoteL@CSecQueryUi@@QAEXABVTDesC16@@@Z @ 48 NONAME ; void CSecQueryUi::DisplayPermanentNoteL(class TDesC16 const &)
	?DisplayErrorNoteL@CSecQueryUi@@QAEXABVTDesC16@@@Z @ 49 NONAME ; void CSecQueryUi::DisplayErrorNoteL(class TDesC16 const &)
	?NewLC@CSecQueryUi@@SAPAV1@XZ @ 50 NONAME ; class CSecQueryUi * CSecQueryUi::NewLC(void)
	?LaunchHelpL@CSecQueryUi@@QAEXABVTDesC16@@@Z @ 51 NONAME ; void CSecQueryUi::LaunchHelpL(class TDesC16 const &)
	?ChangePin2ParamsL@CSecuritySettings@@QAEHV?$TBuf@$09@@0HAAVTDes16@@H@Z @ 52 NONAME ; int CSecuritySettings::ChangePin2ParamsL(class TBuf<10>, class TBuf<10>, int, class TDes16 &, int)
	?InstallConfirmationQueryL@CSecQueryUi@@QAEHHAAV?$TBuf@$09@@@Z @ 53 NONAME ; int CSecQueryUi::InstallConfirmationQueryL(int, class TBuf<10> &)
	?ChangePinParamsL@CSecuritySettings@@QAEHV?$TBuf@$09@@0HAAVTDes16@@H@Z @ 54 NONAME ; int CSecuritySettings::ChangePinParamsL(class TBuf<10>, class TBuf<10>, int, class TDes16 &, int)
	?DisplayWarningNoteL@CSecQueryUi@@QAEXABVTDesC16@@@Z @ 55 NONAME ; void CSecQueryUi::DisplayWarningNoteL(class TDesC16 const &)
	?DisplayInformationNoteL@CSecQueryUi@@QAEXABVTDesC16@@@Z @ 56 NONAME ; void CSecQueryUi::DisplayInformationNoteL(class TDesC16 const &)
	?NewL@CSecQueryUi@@SAPAV1@XZ @ 57 NONAME ; class CSecQueryUi * CSecQueryUi::NewL(void)
	?SecQueryDialog@CSecQueryUi@@QAEHABVTDesC16@@AAVTDes16@@HHH@Z @ 58 NONAME ; int CSecQueryUi::SecQueryDialog(class TDesC16 const &, class TDes16 &, int, int, int)
	?ChangeUPinParamsL@CSecuritySettings@@QAEHV?$TBuf@$09@@0HAAVTDes16@@H@Z @ 59 NONAME ; int CSecuritySettings::ChangeUPinParamsL(class TBuf<10>, class TBuf<10>, int, class TDes16 &, int)
	?CloseWaitNote@CSecQueryUi@@QAEXXZ @ 60 NONAME ; void CSecQueryUi::CloseWaitNote(void)
	?UpdateProgressNoteValueL@CSecQueryUi@@QAEXH@Z @ 61 NONAME ; void CSecQueryUi::UpdateProgressNoteValueL(int)
	?DisplayProgressNoteL@CSecQueryUi@@QAEXABVTDesC16@@H@Z @ 62 NONAME ; void CSecQueryUi::DisplayProgressNoteL(class TDesC16 const &, int)
	?DisplayWaitNoteL@CSecQueryUi@@QAEXABVTDesC16@@AAVTRequestStatus@@@Z @ 63 NONAME ; void CSecQueryUi::DisplayWaitNoteL(class TDesC16 const &, class TRequestStatus &)
	?ChangePinRequestParamsL@CSecuritySettings@@QAEHHV?$TBuf@$09@@HAAVTDes16@@H@Z @ 64 NONAME ; int CSecuritySettings::ChangePinRequestParamsL(int, class TBuf<10>, int, class TDes16 &, int)
	?ChangeSecCodeParamsL@CSecuritySettings@@QAEHV?$TBuf@$09@@0HAAVTDes16@@H@Z @ 65 NONAME ; int CSecuritySettings::ChangeSecCodeParamsL(class TBuf<10>, class TBuf<10>, int, class TDes16 &, int)
	?CloseProgressNoteL@CSecQueryUi@@QAEXXZ @ 66 NONAME ; void CSecQueryUi::CloseProgressNoteL(void)
	?ClosePermanentNote@CSecQueryUi@@QAEXXZ @ 67 NONAME ; void CSecQueryUi::ClosePermanentNote(void)
	?ChangeAutoLockPeriodParamsL@CSecuritySettings@@QAEHHV?$TBuf@$09@@HAAVTDes16@@H@Z @ 68 NONAME ; int CSecuritySettings::ChangeAutoLockPeriodParamsL(int, class TBuf<10>, int, class TDes16 &, int)
	?LaunchHelpL@CSecQueryUi@@QAEXABVTDesC16@@ABVTUid@@@Z @ 69 NONAME ; void CSecQueryUi::LaunchHelpL(class TDesC16 const &, class TUid const &)
	?AskSecCodeParamsL@CSecuritySettings@@QAEHAAV?$TBuf@$09@@HAAVTDes16@@H@Z @ 70 NONAME ; int CSecuritySettings::AskSecCodeParamsL(class TBuf<10> &, int, class TDes16 &, int)

