EXPORTS
	?GetUpdatePackageIds@RFotaEngineSession@@QAEHAAVTDes16@@@Z @ 1 NONAME ; int RFotaEngineSession::GetUpdatePackageIds(class TDes16 &)
	?TryResumeDownload@RFotaEngineSession@@QAEHH@Z @ 2 NONAME ; int RFotaEngineSession::TryResumeDownload(int)
	?CurrentVersion@RFotaEngineSession@@QAEHAAVTDes16@@@Z @ 3 NONAME ; int RFotaEngineSession::CurrentVersion(class TDes16 &)
	?Update@RFotaEngineSession@@QAEHHHABVTDesC8@@0@Z @ 4 NONAME ; int RFotaEngineSession::Update(int, int, class TDesC8 const &, class TDesC8 const &)
	?GetResult@RFotaEngineSession@@QAEHH@Z @ 5 NONAME ; int RFotaEngineSession::GetResult(int)
	?GetCurrentFirmwareDetailsL@RFotaEngineSession@@QAEXAAVTDes8@@0AAH@Z @ 6 NONAME ; void RFotaEngineSession::GetCurrentFirmwareDetailsL(class TDes8 &, class TDes8 &, int &)
	?Close@RFotaEngineSession@@QAEXXZ @ 7 NONAME ; void RFotaEngineSession::Close(void)
	?OpenL@RFotaEngineSession@@QAEXXZ @ 8 NONAME ; void RFotaEngineSession::OpenL(void)
	?GetState@RFotaEngineSession@@QAE?AW4TState@1@H@Z @ 9 NONAME ; enum RFotaEngineSession::TState RFotaEngineSession::GetState(int)
	?GenericAlertSentL@RFotaEngineSession@@QAEXH@Z @ 10 NONAME ; void RFotaEngineSession::GenericAlertSentL(int)
	?ScheduledUpdateL@RFotaEngineSession@@QAEHVTFotaScheduledUpdate@@@Z @ 11 NONAME ; int RFotaEngineSession::ScheduledUpdateL(class TFotaScheduledUpdate)
	?Version@RFotaEngineSession@@QBE?AVTVersion@@XZ @ 12 NONAME ; class TVersion RFotaEngineSession::Version(void) const
	?PauseDownload@RFotaEngineSession@@QAEHXZ @ 13 NONAME ; int RFotaEngineSession::PauseDownload(void)
	?DownloadAndUpdate@RFotaEngineSession@@QAEHHABVTDesC8@@H00H@Z @ 14 NONAME ; int RFotaEngineSession::DownloadAndUpdate(int, class TDesC8 const &, int, class TDesC8 const &, class TDesC8 const &, int)
	?LastUpdate@RFotaEngineSession@@QAEHAAVTTime@@@Z @ 15 NONAME ; int RFotaEngineSession::LastUpdate(class TTime &)
	?Download@RFotaEngineSession@@QAEHHABVTDesC8@@H00H@Z @ 16 NONAME ; int RFotaEngineSession::Download(int, class TDesC8 const &, int, class TDesC8 const &, class TDesC8 const &, int)
	?DeleteUpdatePackage@RFotaEngineSession@@QAEHH@Z @ 17 NONAME ; int RFotaEngineSession::DeleteUpdatePackage(int)
	??0RFotaEngineSession@@QAE@XZ @ 18 NONAME ; RFotaEngineSession::RFotaEngineSession(void)
	?UpdatePackageDownloadComplete@RFotaEngineSession@@QAEXH@Z @ 19 NONAME ; void RFotaEngineSession::UpdatePackageDownloadComplete(int)
	?OpenUpdatePackageStore@RFotaEngineSession@@QAEHHAAPAVRWriteStream@@@Z @ 20 NONAME ; int RFotaEngineSession::OpenUpdatePackageStore(int, class RWriteStream * &)
	?IsPackageStoreSizeAvailable@RFotaEngineSession@@QAEHH@Z @ 21 NONAME ; int RFotaEngineSession::IsPackageStoreSizeAvailable(int)
	?GetDownloadUpdatePackageSize@RFotaEngineSession@@QAEHHAAH0@Z @ 22 NONAME ; int RFotaEngineSession::GetDownloadUpdatePackageSize(int, int &, int &)

