EXPORTS
	??0CDevTokenDHParams@@AAE@VRInteger@@0@Z @ 1 NONAME ; CDevTokenDHParams::CDevTokenDHParams(class RInteger, class RInteger)
	??1CDevTokenDHParams@@UAE@XZ @ 2 NONAME ; CDevTokenDHParams::~CDevTokenDHParams(void)
	?CreateLC@@YAXAAVRReadStream@@AAVRInteger@@@Z @ 3 NONAME ; void CreateLC(class RReadStream &, class RInteger &)
	?DecryptAndCreateLC@@YAXAAVRReadStream@@AAVRInteger@@PAVMKeyEncryptor@@@Z @ 4 NONAME ; void DecryptAndCreateLC(class RReadStream &, class RInteger &, class MKeyEncryptor *)
	?EncryptAndStoreL@@YAXABVTInteger@@AAVRWriteStream@@PAVMKeyEncryptor@@@Z @ 5 NONAME ; void EncryptAndStoreL(class TInteger const &, class RWriteStream &, class MKeyEncryptor *)
	?ExternalizeL@@YAXABVTInteger@@AAVRWriteStream@@@Z @ 6 NONAME ; void ExternalizeL(class TInteger const &, class RWriteStream &)
	?NewL@CDevTokenCertInfo@@SAPAV1@AAVRReadStream@@@Z @ 7 NONAME ; class CDevTokenCertInfo * CDevTokenCertInfo::NewL(class RReadStream &)
	?NewL@CDevTokenCertInfo@@SAPAV1@ABV1@@Z @ 8 NONAME ; class CDevTokenCertInfo * CDevTokenCertInfo::NewL(class CDevTokenCertInfo const &)
	?NewL@CDevTokenCertInfo@@SAPAV1@ABVTDesC16@@W4TCertificateFormat@@W4TCertificateOwnerType@@HPBV?$TBuf8@$0BE@@@3H@Z @ 9 NONAME ; class CDevTokenCertInfo * CDevTokenCertInfo::NewL(class TDesC16 const &, enum TCertificateFormat, enum TCertificateOwnerType, int, class TBuf8<20> const *, class TBuf8<20> const *, int)
	?NewL@CDevTokenCertInfo@@SAPAV1@ABVTDesC16@@W4TCertificateFormat@@W4TCertificateOwnerType@@HPBV?$TBuf8@$0BE@@@3HH@Z @ 10 NONAME ; class CDevTokenCertInfo * CDevTokenCertInfo::NewL(class TDesC16 const &, enum TCertificateFormat, enum TCertificateOwnerType, int, class TBuf8<20> const *, class TBuf8<20> const *, int, int)
	?NewL@CDevTokenDHParams@@SAPAV1@ABVTInteger@@0@Z @ 11 NONAME ; class CDevTokenDHParams * CDevTokenDHParams::NewL(class TInteger const &, class TInteger const &)
	?NewL@CDevTokenKeyInfo@@SAPAV1@AAVRReadStream@@@Z @ 12 NONAME ; class CDevTokenKeyInfo * CDevTokenKeyInfo::NewL(class RReadStream &)
	?NewLC@CDevTokenCertInfo@@SAPAV1@AAVRReadStream@@@Z @ 13 NONAME ; class CDevTokenCertInfo * CDevTokenCertInfo::NewLC(class RReadStream &)
	?NewLC@CDevTokenCertInfo@@SAPAV1@ABV1@@Z @ 14 NONAME ; class CDevTokenCertInfo * CDevTokenCertInfo::NewLC(class CDevTokenCertInfo const &)
	?NewLC@CDevTokenCertInfo@@SAPAV1@ABVTDesC16@@W4TCertificateFormat@@W4TCertificateOwnerType@@HPBV?$TBuf8@$0BE@@@3H@Z @ 15 NONAME ; class CDevTokenCertInfo * CDevTokenCertInfo::NewLC(class TDesC16 const &, enum TCertificateFormat, enum TCertificateOwnerType, int, class TBuf8<20> const *, class TBuf8<20> const *, int)
	?NewLC@CDevTokenCertInfo@@SAPAV1@ABVTDesC16@@W4TCertificateFormat@@W4TCertificateOwnerType@@HPBV?$TBuf8@$0BE@@@3HH@Z @ 16 NONAME ; class CDevTokenCertInfo * CDevTokenCertInfo::NewLC(class TDesC16 const &, enum TCertificateFormat, enum TCertificateOwnerType, int, class TBuf8<20> const *, class TBuf8<20> const *, int, int)
	?ReadL@DevTokenDataMarshaller@@SAXABVTDesC8@@AAPAVCCertAttributeFilter@@@Z @ 17 NONAME ; void DevTokenDataMarshaller::ReadL(class TDesC8 const &, class CCertAttributeFilter * &)
	?ReadL@DevTokenDataMarshaller@@SAXABVTDesC8@@AAPAVCDHPublicKey@@@Z @ 18 NONAME ; void DevTokenDataMarshaller::ReadL(class TDesC8 const &, class CDHPublicKey * &)
	?ReadL@DevTokenDataMarshaller@@SAXABVTDesC8@@AAPAVCDSASignature@@@Z @ 19 NONAME ; void DevTokenDataMarshaller::ReadL(class TDesC8 const &, class CDSASignature * &)
	?ReadL@DevTokenDataMarshaller@@SAXABVTDesC8@@AAPAVCDevTokenCertInfo@@@Z @ 20 NONAME ; void DevTokenDataMarshaller::ReadL(class TDesC8 const &, class CDevTokenCertInfo * &)
	?ReadL@DevTokenDataMarshaller@@SAXABVTDesC8@@AAPAVCDevTokenDHParams@@@Z @ 21 NONAME ; void DevTokenDataMarshaller::ReadL(class TDesC8 const &, class CDevTokenDHParams * &)
	?ReadL@DevTokenDataMarshaller@@SAXABVTDesC8@@AAPAVCDevTokenKeyInfo@@@Z @ 22 NONAME ; void DevTokenDataMarshaller::ReadL(class TDesC8 const &, class CDevTokenKeyInfo * &)
	?ReadL@DevTokenDataMarshaller@@SAXABVTDesC8@@AAPAVCRSASignature@@@Z @ 23 NONAME ; void DevTokenDataMarshaller::ReadL(class TDesC8 const &, class CRSASignature * &)
	?ReadL@DevTokenDataMarshaller@@SAXABVTDesC8@@AAV?$RArray@VTCertificateAppInfo@@@@@Z @ 24 NONAME ; void DevTokenDataMarshaller::ReadL(class TDesC8 const &, class RArray<class TCertificateAppInfo> &)
	?ReadL@DevTokenDataMarshaller@@SAXABVTDesC8@@AAV?$RArray@VTUid@@@@@Z @ 25 NONAME ; void DevTokenDataMarshaller::ReadL(class TDesC8 const &, class RArray<class TUid> &)
	?ReadL@DevTokenDataMarshaller@@SAXABVTDesC8@@AAV?$RPointerArray@VHBufC16@@@@@Z @ 26 NONAME ; void DevTokenDataMarshaller::ReadL(class TDesC8 const &, class RPointerArray<class HBufC16> &)
	?ReadL@DevTokenDataMarshaller@@SAXABVTDesC8@@AAVMCTToken@@AAPAVCCTCertInfo@@@Z @ 27 NONAME ; void DevTokenDataMarshaller::ReadL(class TDesC8 const &, class MCTToken &, class CCTCertInfo * &)
	?ReadL@DevTokenDataMarshaller@@SAXABVTDesC8@@AAVMCTToken@@AAPAVCCTKeyInfo@@@Z @ 28 NONAME ; void DevTokenDataMarshaller::ReadL(class TDesC8 const &, class MCTToken &, class CCTKeyInfo * &)
	?ReadL@DevTokenDataMarshaller@@SAXABVTDesC8@@AAVMCTToken@@AAV?$RMPointerArray@VCCTCertInfo@@@@@Z @ 29 NONAME ; void DevTokenDataMarshaller::ReadL(class TDesC8 const &, class MCTToken &, class RMPointerArray<class CCTCertInfo> &)
	?ReadL@DevTokenDataMarshaller@@SAXABVTDesC8@@AAVMCTToken@@AAVMDevTokenKeyInfoArray@@@Z @ 30 NONAME ; void DevTokenDataMarshaller::ReadL(class TDesC8 const &, class MCTToken &, class MDevTokenKeyInfoArray &)
	?ReadL@DevTokenDataMarshaller@@SAXABVTDesC8@@AAVRInteger@@@Z @ 31 NONAME ; void DevTokenDataMarshaller::ReadL(class TDesC8 const &, class RInteger &)
	?SetManagementPolicy@CDevTokenKeyInfo@@QAEXABVTSecurityPolicy@@@Z @ 32 NONAME ; void CDevTokenKeyInfo::SetManagementPolicy(class TSecurityPolicy const &)
	?SetPKCS8AttributeSet@CDevTokenKeyInfo@@QAEXPAVHBufC8@@@Z @ 33 NONAME ; void CDevTokenKeyInfo::SetPKCS8AttributeSet(class HBufC8 *)
	?SetUsePolicy@CDevTokenKeyInfo@@QAEXABVTSecurityPolicy@@@Z @ 34 NONAME ; void CDevTokenKeyInfo::SetUsePolicy(class TSecurityPolicy const &)
	?Size@DevTokenDataMarshaller@@SAHABV?$RArray@VTCertificateAppInfo@@@@@Z @ 35 NONAME ; int DevTokenDataMarshaller::Size(class RArray<class TCertificateAppInfo> const &)
	?Size@DevTokenDataMarshaller@@SAHABV?$RArray@VTUid@@@@@Z @ 36 NONAME ; int DevTokenDataMarshaller::Size(class RArray<class TUid> const &)
	?Size@DevTokenDataMarshaller@@SAHABV?$RPointerArray@VCDevTokenCertInfo@@@@@Z @ 37 NONAME ; int DevTokenDataMarshaller::Size(class RPointerArray<class CDevTokenCertInfo> const &)
	?Size@DevTokenDataMarshaller@@SAHABV?$RPointerArray@VCDevTokenKeyInfo@@@@@Z @ 38 NONAME ; int DevTokenDataMarshaller::Size(class RPointerArray<class CDevTokenKeyInfo> const &)
	?Size@DevTokenDataMarshaller@@SAHABV?$RPointerArray@VHBufC16@@@@@Z @ 39 NONAME ; int DevTokenDataMarshaller::Size(class RPointerArray<class HBufC16> const &)
	?Size@DevTokenDataMarshaller@@SAHABVCCertAttributeFilter@@@Z @ 40 NONAME ; int DevTokenDataMarshaller::Size(class CCertAttributeFilter const &)
	?Size@DevTokenDataMarshaller@@SAHABVCDHPublicKey@@@Z @ 41 NONAME ; int DevTokenDataMarshaller::Size(class CDHPublicKey const &)
	?Size@DevTokenDataMarshaller@@SAHABVCDSASignature@@@Z @ 42 NONAME ; int DevTokenDataMarshaller::Size(class CDSASignature const &)
	?Size@DevTokenDataMarshaller@@SAHABVCDevTokenDHParams@@@Z @ 43 NONAME ; int DevTokenDataMarshaller::Size(class CDevTokenDHParams const &)
	?Size@DevTokenDataMarshaller@@SAHABVCKeyInfoBase@@@Z @ 44 NONAME ; int DevTokenDataMarshaller::Size(class CKeyInfoBase const &)
	?Size@DevTokenDataMarshaller@@SAHABVCRSASignature@@@Z @ 45 NONAME ; int DevTokenDataMarshaller::Size(class CRSASignature const &)
	?Size@DevTokenDataMarshaller@@SAHABVMCertInfo@@@Z @ 46 NONAME ; int DevTokenDataMarshaller::Size(class MCertInfo const &)
	?Size@DevTokenDataMarshaller@@SAHABVTInteger@@@Z @ 47 NONAME ; int DevTokenDataMarshaller::Size(class TInteger const &)
	?TakeG@CDevTokenDHParams@@QAE?AVRInteger@@XZ @ 48 NONAME ; class RInteger CDevTokenDHParams::TakeG(void)
	?TakeN@CDevTokenDHParams@@QAE?AVRInteger@@XZ @ 49 NONAME ; class RInteger CDevTokenDHParams::TakeN(void)
	?Write@DevTokenDataMarshaller@@SAXABV?$RArray@VTCertificateAppInfo@@@@AAVTDes8@@@Z @ 50 NONAME ; void DevTokenDataMarshaller::Write(class RArray<class TCertificateAppInfo> const &, class TDes8 &)
	?Write@DevTokenDataMarshaller@@SAXABV?$RArray@VTUid@@@@AAVTDes8@@@Z @ 51 NONAME ; void DevTokenDataMarshaller::Write(class RArray<class TUid> const &, class TDes8 &)
	?Write@DevTokenDataMarshaller@@SAXABV?$RPointerArray@VCDevTokenCertInfo@@@@AAVTDes8@@@Z @ 52 NONAME ; void DevTokenDataMarshaller::Write(class RPointerArray<class CDevTokenCertInfo> const &, class TDes8 &)
	?Write@DevTokenDataMarshaller@@SAXABV?$RPointerArray@VCDevTokenKeyInfo@@@@AAVTDes8@@@Z @ 53 NONAME ; void DevTokenDataMarshaller::Write(class RPointerArray<class CDevTokenKeyInfo> const &, class TDes8 &)
	?Write@DevTokenDataMarshaller@@SAXABV?$RPointerArray@VHBufC16@@@@AAVTDes8@@@Z @ 54 NONAME ; void DevTokenDataMarshaller::Write(class RPointerArray<class HBufC16> const &, class TDes8 &)
	?Write@DevTokenDataMarshaller@@SAXABVCKeyInfoBase@@AAVTDes8@@@Z @ 55 NONAME ; void DevTokenDataMarshaller::Write(class CKeyInfoBase const &, class TDes8 &)
	?Write@DevTokenDataMarshaller@@SAXABVMCertInfo@@AAVTDes8@@@Z @ 56 NONAME ; void DevTokenDataMarshaller::Write(class MCertInfo const &, class TDes8 &)
	?WriteL@DevTokenDataMarshaller@@SAXABVCCertAttributeFilter@@AAVTDes8@@@Z @ 57 NONAME ; void DevTokenDataMarshaller::WriteL(class CCertAttributeFilter const &, class TDes8 &)
	?WriteL@DevTokenDataMarshaller@@SAXABVCDHPublicKey@@AAVTDes8@@@Z @ 58 NONAME ; void DevTokenDataMarshaller::WriteL(class CDHPublicKey const &, class TDes8 &)
	?WriteL@DevTokenDataMarshaller@@SAXABVCDSASignature@@AAVTDes8@@@Z @ 59 NONAME ; void DevTokenDataMarshaller::WriteL(class CDSASignature const &, class TDes8 &)
	?WriteL@DevTokenDataMarshaller@@SAXABVCDevTokenDHParams@@AAVTDes8@@@Z @ 60 NONAME ; void DevTokenDataMarshaller::WriteL(class CDevTokenDHParams const &, class TDes8 &)
	?WriteL@DevTokenDataMarshaller@@SAXABVCRSASignature@@AAVTDes8@@@Z @ 61 NONAME ; void DevTokenDataMarshaller::WriteL(class CRSASignature const &, class TDes8 &)
	?WriteL@DevTokenDataMarshaller@@SAXABVTInteger@@AAVTDes8@@@Z @ 62 NONAME ; void DevTokenDataMarshaller::WriteL(class TInteger const &, class TDes8 &)

