EXPORTS
	?OpenDatabaseL@CCPixSearcher@@QAEXAAVMCPixOpenDatabaseRequestObserver@@ABVTDesC16@@@Z @ 1 NONAME ; void CCPixSearcher::OpenDatabaseL(class MCPixOpenDatabaseRequestObserver &, class TDesC16 const &)
	?NewL@CSearchDocument@@SAPAV1@ABVTDesC16@@00W4TFilterId@1@@Z @ 2 NONAME ; class CSearchDocument * CSearchDocument::NewL(class TDesC16 const &, class TDesC16 const &, class TDesC16 const &, enum CSearchDocument::TFilterId)
	?DeleteL@CCPixIndexer@@QAEXAAVMCPixIndexingRequestObserver@@ABVTDesC16@@@Z @ 3 NONAME ; void CCPixIndexer::DeleteL(class MCPixIndexingRequestObserver &, class TDesC16 const &)
	?SetAnalyzerL@RSearchServerSubSession@@QAEXABVTDesC16@@@Z @ 4 NONAME ; void RSearchServerSubSession::SetAnalyzerL(class TDesC16 const &)
	?GetDocument@RSearchServerSubSession@@QAEXHAAVTRequestStatus@@@Z @ 5 NONAME ; void RSearchServerSubSession::GetDocument(int, class TRequestStatus &)
	?SetAnalyzerL@CCPixIndexer@@QAEXAAVMCPixSetAnalyzerRequestObserver@@ABVTDesC16@@@Z @ 6 NONAME ; void CCPixIndexer::SetAnalyzerL(class MCPixSetAnalyzerRequestObserver &, class TDesC16 const &)
	?SearchL@CCPixSearcher@@QAEHABVTDesC16@@0@Z @ 7 NONAME ; int CCPixSearcher::SearchL(class TDesC16 const &, class TDesC16 const &)
	?Update@RSearchServerSubSession@@QAEXABVTDesC8@@AAVTRequestStatus@@@Z @ 8 NONAME ; void RSearchServerSubSession::Update(class TDesC8 const &, class TRequestStatus &)
	?OpenDatabaseL@CCPixSearcher@@QAEXABVTDesC16@@@Z @ 9 NONAME ; void CCPixSearcher::OpenDatabaseL(class TDesC16 const &)
	?GetBatchDocumentL@RSearchServerSubSession@@QAEPAPAVCSearchDocument@@HAAHH@Z @ 10 NONAME ; class CSearchDocument * * RSearchServerSubSession::GetBatchDocumentL(int, int &, int)
	?Delete@RSearchServerSubSession@@QAEXABVTDesC16@@AAVTRequestStatus@@@Z @ 11 NONAME ; void RSearchServerSubSession::Delete(class TDesC16 const &, class TRequestStatus &)
	?SetAnalyzerL@CCPixSearcher@@QAEXABVTDesC16@@@Z @ 12 NONAME ; void CCPixSearcher::SetAnalyzerL(class TDesC16 const &)
	?SetAnalyzer@RSearchServerSubSession@@QAEXABVTDesC16@@AAVTRequestStatus@@@Z @ 13 NONAME ; void RSearchServerSubSession::SetAnalyzer(class TDesC16 const &, class TRequestStatus &)
	?Size@CSearchDocument@@QBEHXZ @ 14 NONAME ; int CSearchDocument::Size(void) const
	?AppClass@CSearchDocument@@QBEABVTDesC16@@XZ @ 15 NONAME ; class TDesC16 const & CSearchDocument::AppClass(void) const
	?NewL@CCPixSearcher@@SAPAV1@AAVRSearchServerSession@@ABVTDesC16@@@Z @ 16 NONAME ; class CCPixSearcher * CCPixSearcher::NewL(class RSearchServerSession &, class TDesC16 const &)
	?ForceHouseKeeping@RSearchServerSession@@QAEHXZ @ 17 NONAME ; int RSearchServerSession::ForceHouseKeeping(void)
	?DeleteL@RSearchServerSubSession@@QAEXABVTDesC16@@@Z @ 18 NONAME ; void RSearchServerSubSession::DeleteL(class TDesC16 const &)
	?GetDocumentL@CCPixSearcher@@QAEPAVCSearchDocument@@H@Z @ 19 NONAME ; class CSearchDocument * CCPixSearcher::GetDocumentL(int)
	?SetQueryParserL@RSearchServerSubSession@@QAEXH@Z @ 20 NONAME ; void RSearchServerSubSession::SetQueryParserL(int)
	?GetBatchDocument@RSearchServerSubSession@@QAEXHAAVTRequestStatus@@H@Z @ 21 NONAME ; void RSearchServerSubSession::GetBatchDocument(int, class TRequestStatus &, int)
	??1CDocumentField@@UAE@XZ @ 22 NONAME ; CDocumentField::~CDocumentField(void)
	??1CSearchDocument@@UAE@XZ @ 23 NONAME ; CSearchDocument::~CSearchDocument(void)
	?Value@CDocumentField@@QBEABVTDesC16@@XZ @ 24 NONAME ; class TDesC16 const & CDocumentField::Value(void) const
	?UpdateL@CCPixIndexer@@QAEXAAVMCPixIndexingRequestObserver@@ABVCSearchDocument@@@Z @ 25 NONAME ; void CCPixIndexer::UpdateL(class MCPixIndexingRequestObserver &, class CSearchDocument const &)
	?ResetL@CCPixIndexer@@QAEXAAVMCPixIndexingRequestObserver@@@Z @ 26 NONAME ; void CCPixIndexer::ResetL(class MCPixIndexingRequestObserver &)
	?NewLC@CDocumentField@@SAPAV1@AAVRReadStream@@@Z @ 27 NONAME ; class CDocumentField * CDocumentField::NewLC(class RReadStream &)
	?Connect@RSearchServerSession@@QAEHXZ @ 28 NONAME ; int RSearchServerSession::Connect(void)
	?IsDatabaseOpen@CCPixSearcher@@QBEHXZ @ 29 NONAME ; int CCPixSearcher::IsDatabaseOpen(void) const
	?AddL@CCPixIndexer@@QAEXABVCSearchDocument@@@Z @ 30 NONAME ; void CCPixIndexer::AddL(class CSearchDocument const &)
	?CancelAll@RSearchServerSubSession@@QBEXXZ @ 31 NONAME ; void RSearchServerSubSession::CancelAll(void) const
	?SetQueryParserL@CCPixSearcher@@QAEXW4TQueryParser@1@@Z @ 32 NONAME ; void CCPixSearcher::SetQueryParserL(enum CCPixSearcher::TQueryParser)
	?SearchL@CCPixSearcher@@QAEXAAVMCPixSearchRequestObserver@@ABVTDesC16@@1@Z @ 33 NONAME ; void CCPixSearcher::SearchL(class MCPixSearchRequestObserver &, class TDesC16 const &, class TDesC16 const &)
	?Close@RSearchServerSession@@QAEXXZ @ 34 NONAME ; void RSearchServerSession::Close(void)
	?Id@CSearchDocument@@QBEABVTDesC16@@XZ @ 35 NONAME ; class TDesC16 const & CSearchDocument::Id(void) const
	?GetDocumentObjectL@RSearchServerSubSession@@QAEPAVCSearchDocument@@XZ @ 36 NONAME ; class CSearchDocument * RSearchServerSubSession::GetDocumentObjectL(void)
	?UpdateL@CCPixIndexer@@QAEXABVCSearchDocument@@@Z @ 37 NONAME ; void CCPixIndexer::UpdateL(class CSearchDocument const &)
	?GetBaseAppClass@CCPixSearcher@@QBEABVTDesC16@@XZ @ 38 NONAME ; class TDesC16 const & CCPixSearcher::GetBaseAppClass(void) const
	?OpenDatabaseL@CCPixIndexer@@QAEXAAVMCPixOpenDatabaseRequestObserver@@ABVTDesC16@@@Z @ 39 NONAME ; void CCPixIndexer::OpenDatabaseL(class MCPixOpenDatabaseRequestObserver &, class TDesC16 const &)
	?InternalizeL@CDocumentField@@QAEXAAVRReadStream@@@Z @ 40 NONAME ; void CDocumentField::InternalizeL(class RReadStream &)
	??0RSearchServerSession@@QAE@XZ @ 41 NONAME ; RSearchServerSession::RSearchServerSession(void)
	?NewL@CCPixIndexer@@SAPAV1@AAVRSearchServerSession@@@Z @ 42 NONAME ; class CCPixIndexer * CCPixIndexer::NewL(class RSearchServerSession &)
	?GetBatchDocumentL@CCPixSearcher@@QAEXHAAVMCPixNextDocumentRequestObserver@@H@Z @ 43 NONAME ; void CCPixSearcher::GetBatchDocumentL(int, class MCPixNextDocumentRequestObserver &, int)
	?Version@RSearchServerSession@@QBE?AVTVersion@@XZ @ 44 NONAME ; class TVersion RSearchServerSession::Version(void) const
	?AddExcerptL@CSearchDocument@@QAEXABVTDesC16@@@Z @ 45 NONAME ; void CSearchDocument::AddExcerptL(class TDesC16 const &)
	?Config@CDocumentField@@QBEHXZ @ 46 NONAME ; int CDocumentField::Config(void) const
	?Boost@CDocumentField@@QBEMXZ @ 47 NONAME ; float CDocumentField::Boost(void) const
	?GetDocumentL@RSearchServerSubSession@@QAEPAVCSearchDocument@@H@Z @ 48 NONAME ; class CSearchDocument * RSearchServerSubSession::GetDocumentL(int)
	?FlushL@CCPixIndexer@@QAEXAAVMCPixIndexingRequestObserver@@@Z @ 49 NONAME ; void CCPixIndexer::FlushL(class MCPixIndexingRequestObserver &)
	?FlushL@RSearchServerSubSession@@QAEXXZ @ 50 NONAME ; void RSearchServerSubSession::FlushL(void)
	?ResetL@CCPixIndexer@@QAEXXZ @ 51 NONAME ; void CCPixIndexer::ResetL(void)
	?ExternalizeL@CSearchDocument@@QBEXAAVRWriteStream@@@Z @ 52 NONAME ; void CSearchDocument::ExternalizeL(class RWriteStream &) const
	?Search@RSearchServerSubSession@@QAEXABVTDesC16@@AAVTRequestStatus@@@Z @ 53 NONAME ; void RSearchServerSubSession::Search(class TDesC16 const &, class TRequestStatus &)
	?Size@CDocumentField@@QBEHXZ @ 54 NONAME ; int CDocumentField::Size(void) const
	?NewL@CDocumentField@@SAPAV1@AAVRReadStream@@@Z @ 55 NONAME ; class CDocumentField * CDocumentField::NewL(class RReadStream &)
	?NewLC@CSearchDocument@@SAPAV1@ABVTDesC16@@00W4TFilterId@1@@Z @ 56 NONAME ; class CSearchDocument * CSearchDocument::NewLC(class TDesC16 const &, class TDesC16 const &, class TDesC16 const &, enum CSearchDocument::TFilterId)
	?DeleteL@CCPixIndexer@@QAEXABVTDesC16@@@Z @ 57 NONAME ; void CCPixIndexer::DeleteL(class TDesC16 const &)
	?NewLC@CDocumentField@@SAPAV1@ABVTDesC16@@0H@Z @ 58 NONAME ; class CDocumentField * CDocumentField::NewLC(class TDesC16 const &, class TDesC16 const &, int)
	?GetBatchDocumentObjectL@RSearchServerSubSession@@QAEPAPAVCSearchDocument@@AAH@Z @ 59 NONAME ; class CSearchDocument * * RSearchServerSubSession::GetBatchDocumentObjectL(int &)
	??1CCPixSearcher@@UAE@XZ @ 60 NONAME ; CCPixSearcher::~CCPixSearcher(void)
	?SetBoost@CSearchDocument@@QAEXM@Z @ 61 NONAME ; void CSearchDocument::SetBoost(float)
	?IsDatabaseOpen@CCPixIndexer@@QBEHXZ @ 62 NONAME ; int CCPixIndexer::IsDatabaseOpen(void) const
	?NewL@CDocumentField@@SAPAV1@ABVTDesC16@@0H@Z @ 63 NONAME ; class CDocumentField * CDocumentField::NewL(class TDesC16 const &, class TDesC16 const &, int)
	?Flush@RSearchServerSubSession@@QAEXAAVTRequestStatus@@@Z @ 64 NONAME ; void RSearchServerSubSession::Flush(class TRequestStatus &)
	?Field@CSearchDocument@@QBEPBVCDocumentField@@ABVTDesC16@@@Z @ 65 NONAME ; class CDocumentField const * CSearchDocument::Field(class TDesC16 const &) const
	?NewLC@CSearchDocument@@SAPAV1@AAVRReadStream@@@Z @ 66 NONAME ; class CSearchDocument * CSearchDocument::NewLC(class RReadStream &)
	?StopHouseKeeping@RSearchServerSession@@QAEHXZ @ 67 NONAME ; int RSearchServerSession::StopHouseKeeping(void)
	?AddFieldL@CSearchDocument@@QAEAAVCDocumentField@@ABVTDesC16@@0H@Z @ 68 NONAME ; class CDocumentField & CSearchDocument::AddFieldL(class TDesC16 const &, class TDesC16 const &, int)
	?Field@CSearchDocument@@QBEABVCDocumentField@@H@Z @ 69 NONAME ; class CDocumentField const & CSearchDocument::Field(int) const
	?SetAnalyzerL@CCPixIndexer@@QAEXABVTDesC16@@@Z @ 70 NONAME ; void CCPixIndexer::SetAnalyzerL(class TDesC16 const &)
	?ResetL@RSearchServerSubSession@@QAEXXZ @ 71 NONAME ; void RSearchServerSubSession::ResetL(void)
	?FieldCount@CSearchDocument@@QBEHXZ @ 72 NONAME ; int CSearchDocument::FieldCount(void) const
	?NewLC@CCPixSearcher@@SAPAV1@AAVRSearchServerSession@@ABVTDesC16@@@Z @ 73 NONAME ; class CCPixSearcher * CCPixSearcher::NewLC(class RSearchServerSession &, class TDesC16 const &)
	?Excerpt@CSearchDocument@@QBEABVTDesC16@@XZ @ 74 NONAME ; class TDesC16 const & CSearchDocument::Excerpt(void) const
	?GetBaseAppClass@CCPixIndexer@@QBEABVTDesC16@@XZ @ 75 NONAME ; class TDesC16 const & CCPixIndexer::GetBaseAppClass(void) const
	?OpenDatabaseL@CCPixIndexer@@QAEXABVTDesC16@@@Z @ 76 NONAME ; void CCPixIndexer::OpenDatabaseL(class TDesC16 const &)
	?SetAnalyzerL@CCPixSearcher@@QAEXAAVMCPixSetAnalyzerRequestObserver@@ABVTDesC16@@@Z @ 77 NONAME ; void CCPixSearcher::SetAnalyzerL(class MCPixSetAnalyzerRequestObserver &, class TDesC16 const &)
	?Boost@CSearchDocument@@QBEMXZ @ 78 NONAME ; float CSearchDocument::Boost(void) const
	?SearchL@RSearchServerSubSession@@QAEXABVTDesC16@@@Z @ 79 NONAME ; void RSearchServerSubSession::SearchL(class TDesC16 const &)
	?DefineVolume@RSearchServerSession@@QAEHABVTDesC16@@0@Z @ 80 NONAME ; int RSearchServerSession::DefineVolume(class TDesC16 const &, class TDesC16 const &)
	?InternalizeL@CSearchDocument@@QAEXAAVRReadStream@@@Z @ 81 NONAME ; void CSearchDocument::InternalizeL(class RReadStream &)
	?Name@CDocumentField@@QBEABVTDesC16@@XZ @ 82 NONAME ; class TDesC16 const & CDocumentField::Name(void) const
	?Reset@RSearchServerSubSession@@QAEXAAVTRequestStatus@@@Z @ 83 NONAME ; void RSearchServerSubSession::Reset(class TRequestStatus &)
	?AddL@CCPixIndexer@@QAEXAAVMCPixIndexingRequestObserver@@ABVCSearchDocument@@@Z @ 84 NONAME ; void CCPixIndexer::AddL(class MCPixIndexingRequestObserver &, class CSearchDocument const &)
	?SetQueryParserL@CCPixSearcher@@QAEXAAVMCPixSetQueryParserRequestObserver@@W4TQueryParser@1@@Z @ 85 NONAME ; void CCPixSearcher::SetQueryParserL(class MCPixSetQueryParserRequestObserver &, enum CCPixSearcher::TQueryParser)
	?RemoveField@CSearchDocument@@QAEHABVTDesC16@@@Z @ 86 NONAME ; int CSearchDocument::RemoveField(class TDesC16 const &)
	?Add@RSearchServerSubSession@@QAEXABVTDesC8@@AAVTRequestStatus@@@Z @ 87 NONAME ; void RSearchServerSubSession::Add(class TDesC8 const &, class TRequestStatus &)
	?SetQueryParser@RSearchServerSubSession@@QAEXHAAVTRequestStatus@@@Z @ 88 NONAME ; void RSearchServerSubSession::SetQueryParser(int, class TRequestStatus &)
	?FlushL@CCPixIndexer@@QAEXXZ @ 89 NONAME ; void CCPixIndexer::FlushL(void)
	?ContinueHouseKeeping@RSearchServerSession@@QAEHXZ @ 90 NONAME ; int RSearchServerSession::ContinueHouseKeeping(void)
	?GetDocumentL@CCPixSearcher@@QAEXHAAVMCPixNextDocumentRequestObserver@@@Z @ 91 NONAME ; void CCPixSearcher::GetDocumentL(int, class MCPixNextDocumentRequestObserver &)
	?NewLC@CCPixIndexer@@SAPAV1@AAVRSearchServerSession@@@Z @ 92 NONAME ; class CCPixIndexer * CCPixIndexer::NewLC(class RSearchServerSession &)
	?SetBoost@CDocumentField@@QAEXM@Z @ 93 NONAME ; void CDocumentField::SetBoost(float)
	??1CCPixIndexer@@UAE@XZ @ 94 NONAME ; CCPixIndexer::~CCPixIndexer(void)
	?GetBatchDocumentL@CCPixSearcher@@QAEPAPAVCSearchDocument@@HAAHH@Z @ 95 NONAME ; class CSearchDocument * * CCPixSearcher::GetBatchDocumentL(int, int &, int)
	?NewL@CSearchDocument@@SAPAV1@AAVRReadStream@@@Z @ 96 NONAME ; class CSearchDocument * CSearchDocument::NewL(class RReadStream &)
	?UpdateL@RSearchServerSubSession@@QAEXABVTDesC8@@@Z @ 97 NONAME ; void RSearchServerSubSession::UpdateL(class TDesC8 const &)
	?UnDefineVolume@RSearchServerSession@@QAEHABVTDesC16@@@Z @ 98 NONAME ; int RSearchServerSession::UnDefineVolume(class TDesC16 const &)
	?ExternalizeL@CDocumentField@@QBEXAAVRWriteStream@@@Z @ 99 NONAME ; void CDocumentField::ExternalizeL(class RWriteStream &) const
	?AddL@RSearchServerSubSession@@QAEXABVTDesC8@@@Z @ 100 NONAME ; void RSearchServerSubSession::AddL(class TDesC8 const &)
	?AddHLDisplayFieldL@CSearchDocument@@QAEXABVTDesC16@@@Z @ 101 NONAME ; void CSearchDocument::AddHLDisplayFieldL(class TDesC16 const &)

