EXPORTS
	_Z9LibEntryLR13CTestModuleIf @ 1 NONAME
	_ZN12CCPixIndexer12SetAnalyzerLER31MCPixSetAnalyzerRequestObserverRK7TDesC16 @ 2 NONAME
	_ZN12CCPixIndexer12SetAnalyzerLERK7TDesC16 @ 3 NONAME
	_ZN12CCPixIndexer13OpenDatabaseLER32MCPixOpenDatabaseRequestObserverRK7TDesC16 @ 4 NONAME
	_ZN12CCPixIndexer13OpenDatabaseLERK7TDesC16 @ 5 NONAME
	_ZN12CCPixIndexer4AddLER28MCPixIndexingRequestObserverRK15CSearchDocument @ 6 NONAME
	_ZN12CCPixIndexer4AddLERK15CSearchDocument @ 7 NONAME
	_ZN12CCPixIndexer4NewLER20RSearchServerSession @ 8 NONAME
	_ZN12CCPixIndexer5NewLCER20RSearchServerSession @ 9 NONAME
	_ZN12CCPixIndexer6FlushLER28MCPixIndexingRequestObserver @ 10 NONAME
	_ZN12CCPixIndexer6FlushLEv @ 11 NONAME
	_ZN12CCPixIndexer6ResetLER28MCPixIndexingRequestObserver @ 12 NONAME
	_ZN12CCPixIndexer6ResetLEv @ 13 NONAME
	_ZN12CCPixIndexer7DeleteLER28MCPixIndexingRequestObserverRK7TDesC16 @ 14 NONAME
	_ZN12CCPixIndexer7DeleteLERK7TDesC16 @ 15 NONAME
	_ZN12CCPixIndexer7UpdateLER28MCPixIndexingRequestObserverRK15CSearchDocument @ 16 NONAME
	_ZN12CCPixIndexer7UpdateLERK15CSearchDocument @ 17 NONAME
	_ZN12CCPixIndexerD0Ev @ 18 NONAME
	_ZN12CCPixIndexerD1Ev @ 19 NONAME
	_ZN12CCPixIndexerD2Ev @ 20 NONAME
	_ZN13CCPixSearcher12GetDocumentLEi @ 21 NONAME
	_ZN13CCPixSearcher12GetDocumentLEiR32MCPixNextDocumentRequestObserver @ 22 NONAME
	_ZN13CCPixSearcher12SetAnalyzerLER31MCPixSetAnalyzerRequestObserverRK7TDesC16 @ 23 NONAME
	_ZN13CCPixSearcher12SetAnalyzerLERK7TDesC16 @ 24 NONAME
	_ZN13CCPixSearcher13OpenDatabaseLER32MCPixOpenDatabaseRequestObserverRK7TDesC16 @ 25 NONAME
	_ZN13CCPixSearcher13OpenDatabaseLERK7TDesC16 @ 26 NONAME
	_ZN13CCPixSearcher15SetQueryParserLENS_12TQueryParserE @ 27 NONAME
	_ZN13CCPixSearcher15SetQueryParserLER34MCPixSetQueryParserRequestObserverNS_12TQueryParserE @ 28 NONAME
	_ZN13CCPixSearcher17GetBatchDocumentLEiR32MCPixNextDocumentRequestObserveri @ 29 NONAME
	_ZN13CCPixSearcher17GetBatchDocumentLEiRii @ 30 NONAME
	_ZN13CCPixSearcher4NewLER20RSearchServerSessionRK7TDesC16 @ 31 NONAME
	_ZN13CCPixSearcher5NewLCER20RSearchServerSessionRK7TDesC16 @ 32 NONAME
	_ZN13CCPixSearcher7SearchLER26MCPixSearchRequestObserverRK7TDesC16S4_ @ 33 NONAME
	_ZN13CCPixSearcher7SearchLERK7TDesC16S2_ @ 34 NONAME
	_ZN13CCPixSearcherD0Ev @ 35 NONAME
	_ZN13CCPixSearcherD1Ev @ 36 NONAME
	_ZN13CCPixSearcherD2Ev @ 37 NONAME
	_ZN14CDocumentField12InternalizeLER11RReadStream @ 38 NONAME
	_ZN14CDocumentField4NewLER11RReadStream @ 39 NONAME
	_ZN14CDocumentField4NewLERK7TDesC16S2_i @ 40 NONAME
	_ZN14CDocumentField5NewLCER11RReadStream @ 41 NONAME
	_ZN14CDocumentField5NewLCERK7TDesC16S2_i @ 42 NONAME
	_ZN14CDocumentField8SetBoostEf @ 43 NONAME
	_ZN14CDocumentFieldD0Ev @ 44 NONAME
	_ZN14CDocumentFieldD1Ev @ 45 NONAME
	_ZN14CDocumentFieldD2Ev @ 46 NONAME
	_ZN15CSearchDocument11AddExcerptLERK7TDesC16 @ 47 NONAME
	_ZN15CSearchDocument11RemoveFieldERK7TDesC16 @ 48 NONAME
	_ZN15CSearchDocument12InternalizeLER11RReadStream @ 49 NONAME
	_ZN15CSearchDocument18AddHLDisplayFieldLERK7TDesC16 @ 50 NONAME
	_ZN15CSearchDocument4NewLER11RReadStream @ 51 NONAME
	_ZN15CSearchDocument4NewLERK7TDesC16S2_S2_NS_9TFilterIdE @ 52 NONAME
	_ZN15CSearchDocument5NewLCER11RReadStream @ 53 NONAME
	_ZN15CSearchDocument5NewLCERK7TDesC16S2_S2_NS_9TFilterIdE @ 54 NONAME
	_ZN15CSearchDocument8SetBoostEf @ 55 NONAME
	_ZN15CSearchDocument9AddFieldLERK7TDesC16S2_i @ 56 NONAME
	_ZN15CSearchDocumentD0Ev @ 57 NONAME
	_ZN15CSearchDocumentD1Ev @ 58 NONAME
	_ZN15CSearchDocumentD2Ev @ 59 NONAME
	_ZN20RSearchServerSession12DefineVolumeERK7TDesC16S2_ @ 60 NONAME
	_ZN20RSearchServerSession14UnDefineVolumeERK7TDesC16 @ 61 NONAME
	_ZN20RSearchServerSession16StopHouseKeepingEv @ 62 NONAME
	_ZN20RSearchServerSession17ForceHouseKeepingEv @ 63 NONAME
	_ZN20RSearchServerSession20ContinueHouseKeepingEv @ 64 NONAME
	_ZN20RSearchServerSession5CloseEv @ 65 NONAME
	_ZN20RSearchServerSession7ConnectEv @ 66 NONAME
	_ZN20RSearchServerSessionC1Ev @ 67 NONAME
	_ZN20RSearchServerSessionC2Ev @ 68 NONAME
	_ZN23RSearchServerSubSession11GetDocumentEiR14TRequestStatus @ 69 NONAME
	_ZN23RSearchServerSubSession11SetAnalyzerERK7TDesC16R14TRequestStatus @ 70 NONAME
	_ZN23RSearchServerSubSession12GetDocumentLEi @ 71 NONAME
	_ZN23RSearchServerSubSession12SetAnalyzerLERK7TDesC16 @ 72 NONAME
	_ZN23RSearchServerSubSession14SetQueryParserEiR14TRequestStatus @ 73 NONAME
	_ZN23RSearchServerSubSession15SetQueryParserLEi @ 74 NONAME
	_ZN23RSearchServerSubSession16GetBatchDocumentEiR14TRequestStatusi @ 75 NONAME
	_ZN23RSearchServerSubSession17GetBatchDocumentLEiRii @ 76 NONAME
	_ZN23RSearchServerSubSession18GetDocumentObjectLEv @ 77 NONAME
	_ZN23RSearchServerSubSession23GetBatchDocumentObjectLERi @ 78 NONAME
	_ZN23RSearchServerSubSession3AddERK6TDesC8R14TRequestStatus @ 79 NONAME
	_ZN23RSearchServerSubSession4AddLERK6TDesC8 @ 80 NONAME
	_ZN23RSearchServerSubSession5FlushER14TRequestStatus @ 81 NONAME
	_ZN23RSearchServerSubSession5ResetER14TRequestStatus @ 82 NONAME
	_ZN23RSearchServerSubSession6DeleteERK7TDesC16R14TRequestStatus @ 83 NONAME
	_ZN23RSearchServerSubSession6FlushLEv @ 84 NONAME
	_ZN23RSearchServerSubSession6ResetLEv @ 85 NONAME
	_ZN23RSearchServerSubSession6SearchERK7TDesC16R14TRequestStatus @ 86 NONAME
	_ZN23RSearchServerSubSession6UpdateERK6TDesC8R14TRequestStatus @ 87 NONAME
	_ZN23RSearchServerSubSession7DeleteLERK7TDesC16 @ 88 NONAME
	_ZN23RSearchServerSubSession7SearchLERK7TDesC16 @ 89 NONAME
	_ZN23RSearchServerSubSession7UpdateLERK6TDesC8 @ 90 NONAME
	_ZNK12CCPixIndexer14IsDatabaseOpenEv @ 91 NONAME
	_ZNK12CCPixIndexer15GetBaseAppClassEv @ 92 NONAME
	_ZNK13CCPixSearcher14IsDatabaseOpenEv @ 93 NONAME
	_ZNK13CCPixSearcher15GetBaseAppClassEv @ 94 NONAME
	_ZNK14CDocumentField12ExternalizeLER12RWriteStream @ 95 NONAME
	_ZNK14CDocumentField4NameEv @ 96 NONAME
	_ZNK14CDocumentField4SizeEv @ 97 NONAME
	_ZNK14CDocumentField5BoostEv @ 98 NONAME
	_ZNK14CDocumentField5ValueEv @ 99 NONAME
	_ZNK14CDocumentField6ConfigEv @ 100 NONAME
	_ZNK15CSearchDocument10FieldCountEv @ 101 NONAME
	_ZNK15CSearchDocument12ExternalizeLER12RWriteStream @ 102 NONAME
	_ZNK15CSearchDocument2IdEv @ 103 NONAME
	_ZNK15CSearchDocument4SizeEv @ 104 NONAME
	_ZNK15CSearchDocument5BoostEv @ 105 NONAME
	_ZNK15CSearchDocument5FieldERK7TDesC16 @ 106 NONAME
	_ZNK15CSearchDocument5FieldEi @ 107 NONAME
	_ZNK15CSearchDocument7ExcerptEv @ 108 NONAME
	_ZNK15CSearchDocument8AppClassEv @ 109 NONAME
	_ZNK20RSearchServerSession7VersionEv @ 110 NONAME
	_ZNK23RSearchServerSubSession9CancelAllEv @ 111 NONAME
	_ZTI12CAOTestClass @ 112 NONAME
	_ZTI12CCPixIndexer @ 113 NONAME
	_ZTI12CTestIndexer @ 114 NONAME
	_ZTI13CCPixSearcher @ 115 NONAME
	_ZTI13CTestSearcher @ 116 NONAME
	_ZTI14CDocumentField @ 117 NONAME
	_ZTI15CSearchDocument @ 118 NONAME
	_ZTI27CHandleIndexingResultLeaves @ 119 NONAME
	_ZTV12CAOTestClass @ 120 NONAME
	_ZTV12CCPixIndexer @ 121 NONAME
	_ZTV12CTestIndexer @ 122 NONAME
	_ZTV13CCPixSearcher @ 123 NONAME
	_ZTV13CTestSearcher @ 124 NONAME
	_ZTV14CDocumentField @ 125 NONAME
	_ZTV15CSearchDocument @ 126 NONAME
	_ZTV27CHandleIndexingResultLeaves @ 127 NONAME

