EXPORTS
	_ZN12XqKeyCapture10captureKeyEN2Qt3KeyE6QFlagsINS0_16KeyboardModifierEES4_ @ 1 NONAME ABSENT
	_ZN12XqKeyCapture14captureLongKeyEN2Qt3KeyE6QFlagsINS0_16KeyboardModifierEES4_NS_9LongFlagsE @ 2 NONAME ABSENT
	_ZN12XqKeyCapture16cancelCaptureKeyEN2Qt3KeyE6QFlagsINS0_16KeyboardModifierEES4_ @ 3 NONAME ABSENT
	_ZN12XqKeyCapture20cancelCaptureLongKeyEN2Qt3KeyE6QFlagsINS0_16KeyboardModifierEES4_NS_9LongFlagsE @ 4 NONAME ABSENT
	_ZN12XqKeyCapture20captureKeyUpAndDownsEN2Qt3KeyE6QFlagsINS0_16KeyboardModifierEES4_ @ 5 NONAME ABSENT
	_ZN12XqKeyCapture26cancelCaptureKeyUpAndDownsEN2Qt3KeyE6QFlagsINS0_16KeyboardModifierEES4_ @ 6 NONAME ABSENT
	_ZN12XqKeyCaptureC1Ev @ 7 NONAME ABSENT
	_ZN12XqKeyCaptureC2Ev @ 8 NONAME ABSENT
	_ZN12XqKeyCaptureD1Ev @ 9 NONAME ABSENT
	_ZN12XqKeyCaptureD2Ev @ 10 NONAME ABSENT
	_ZNK12XqKeyCapture11errorStringEv @ 11 NONAME ABSENT
	_ZNK12XqKeyCapture7errorIdEv @ 12 NONAME ABSENT
	_ZN12XqKeyCapture10captureKeyEj6QFlagsIN2Qt16KeyboardModifierEES3_ @ 13 NONAME ABSENT
	_ZN12XqKeyCapture14captureLongKeyEj6QFlagsIN2Qt16KeyboardModifierEES3_NS_9LongFlagsE @ 14 NONAME ABSENT
	_ZN12XqKeyCapture16cancelCaptureKeyEj6QFlagsIN2Qt16KeyboardModifierEES3_ @ 15 NONAME ABSENT
	_ZN12XqKeyCapture20cancelCaptureLongKeyEj6QFlagsIN2Qt16KeyboardModifierEES3_NS_9LongFlagsE @ 16 NONAME ABSENT
	_ZN12XqKeyCapture20captureKeyUpAndDownsEj6QFlagsIN2Qt16KeyboardModifierEES3_ @ 17 NONAME ABSENT
	_ZN12XqKeyCapture26cancelCaptureKeyUpAndDownsEj6QFlagsIN2Qt16KeyboardModifierEES3_ @ 18 NONAME ABSENT
	_ZN12XqKeyCapture10captureKeyE5QListIN2Qt3KeyEE6QFlagsINS1_16KeyboardModifierEES6_ @ 19 NONAME ABSENT
	_ZN12XqKeyCapture10captureKeyE5QListIjE6QFlagsIN2Qt16KeyboardModifierEES5_ @ 20 NONAME ABSENT
	_ZN12XqKeyCapture14captureLongKeyE5QListIN2Qt3KeyEE6QFlagsINS1_16KeyboardModifierEES6_NS_9LongFlagsE @ 21 NONAME ABSENT
	_ZN12XqKeyCapture14captureLongKeyE5QListIjE6QFlagsIN2Qt16KeyboardModifierEES5_NS_9LongFlagsE @ 22 NONAME ABSENT
	_ZN12XqKeyCapture16cancelCaptureKeyE5QListIN2Qt3KeyEE6QFlagsINS1_16KeyboardModifierEES6_ @ 23 NONAME ABSENT
	_ZN12XqKeyCapture16cancelCaptureKeyE5QListIjE6QFlagsIN2Qt16KeyboardModifierEES5_ @ 24 NONAME ABSENT
	_ZN12XqKeyCapture20cancelCaptureLongKeyE5QListIN2Qt3KeyEE6QFlagsINS1_16KeyboardModifierEES6_NS_9LongFlagsE @ 25 NONAME ABSENT
	_ZN12XqKeyCapture20cancelCaptureLongKeyE5QListIjE6QFlagsIN2Qt16KeyboardModifierEES5_NS_9LongFlagsE @ 26 NONAME ABSENT
	_ZN12XqKeyCapture20captureKeyUpAndDownsE5QListIN2Qt3KeyEE6QFlagsINS1_16KeyboardModifierEES6_ @ 27 NONAME ABSENT
	_ZN12XqKeyCapture20captureKeyUpAndDownsE5QListIjE6QFlagsIN2Qt16KeyboardModifierEES5_ @ 28 NONAME ABSENT
	_ZN12XqKeyCapture26cancelCaptureKeyUpAndDownsE5QListIN2Qt3KeyEE6QFlagsINS1_16KeyboardModifierEES6_ @ 29 NONAME ABSENT
	_ZN12XqKeyCapture26cancelCaptureKeyUpAndDownsE5QListIjE6QFlagsIN2Qt16KeyboardModifierEES5_ @ 30 NONAME ABSENT
	_ZN12XQKeyCapture10captureKeyE5QListIN2Qt3KeyEE6QFlagsINS1_16KeyboardModifierEES6_ @ 31 NONAME
	_ZN12XQKeyCapture10captureKeyE5QListIjE6QFlagsIN2Qt16KeyboardModifierEES5_ @ 32 NONAME
	_ZN12XQKeyCapture10captureKeyEN2Qt3KeyE6QFlagsINS0_16KeyboardModifierEES4_ @ 33 NONAME
	_ZN12XQKeyCapture10captureKeyEj6QFlagsIN2Qt16KeyboardModifierEES3_ @ 34 NONAME
	_ZN12XQKeyCapture14captureLongKeyE5QListIN2Qt3KeyEE6QFlagsINS1_16KeyboardModifierEES6_NS_9LongFlagsE @ 35 NONAME
	_ZN12XQKeyCapture14captureLongKeyE5QListIjE6QFlagsIN2Qt16KeyboardModifierEES5_NS_9LongFlagsE @ 36 NONAME
	_ZN12XQKeyCapture14captureLongKeyEN2Qt3KeyE6QFlagsINS0_16KeyboardModifierEES4_NS_9LongFlagsE @ 37 NONAME
	_ZN12XQKeyCapture14captureLongKeyEj6QFlagsIN2Qt16KeyboardModifierEES3_NS_9LongFlagsE @ 38 NONAME
	_ZN12XQKeyCapture16cancelCaptureKeyE5QListIN2Qt3KeyEE6QFlagsINS1_16KeyboardModifierEES6_ @ 39 NONAME
	_ZN12XQKeyCapture16cancelCaptureKeyE5QListIjE6QFlagsIN2Qt16KeyboardModifierEES5_ @ 40 NONAME
	_ZN12XQKeyCapture16cancelCaptureKeyEN2Qt3KeyE6QFlagsINS0_16KeyboardModifierEES4_ @ 41 NONAME
	_ZN12XQKeyCapture16cancelCaptureKeyEj6QFlagsIN2Qt16KeyboardModifierEES3_ @ 42 NONAME
	_ZN12XQKeyCapture20cancelCaptureLongKeyE5QListIN2Qt3KeyEE6QFlagsINS1_16KeyboardModifierEES6_NS_9LongFlagsE @ 43 NONAME
	_ZN12XQKeyCapture20cancelCaptureLongKeyE5QListIjE6QFlagsIN2Qt16KeyboardModifierEES5_NS_9LongFlagsE @ 44 NONAME
	_ZN12XQKeyCapture20cancelCaptureLongKeyEN2Qt3KeyE6QFlagsINS0_16KeyboardModifierEES4_NS_9LongFlagsE @ 45 NONAME
	_ZN12XQKeyCapture20cancelCaptureLongKeyEj6QFlagsIN2Qt16KeyboardModifierEES3_NS_9LongFlagsE @ 46 NONAME
	_ZN12XQKeyCapture20captureKeyUpAndDownsE5QListIN2Qt3KeyEE6QFlagsINS1_16KeyboardModifierEES6_ @ 47 NONAME
	_ZN12XQKeyCapture20captureKeyUpAndDownsE5QListIjE6QFlagsIN2Qt16KeyboardModifierEES5_ @ 48 NONAME
	_ZN12XQKeyCapture20captureKeyUpAndDownsEN2Qt3KeyE6QFlagsINS0_16KeyboardModifierEES4_ @ 49 NONAME
	_ZN12XQKeyCapture20captureKeyUpAndDownsEj6QFlagsIN2Qt16KeyboardModifierEES3_ @ 50 NONAME
	_ZN12XQKeyCapture26cancelCaptureKeyUpAndDownsE5QListIN2Qt3KeyEE6QFlagsINS1_16KeyboardModifierEES6_ @ 51 NONAME
	_ZN12XQKeyCapture26cancelCaptureKeyUpAndDownsE5QListIjE6QFlagsIN2Qt16KeyboardModifierEES5_ @ 52 NONAME
	_ZN12XQKeyCapture26cancelCaptureKeyUpAndDownsEN2Qt3KeyE6QFlagsINS0_16KeyboardModifierEES4_ @ 53 NONAME
	_ZN12XQKeyCapture26cancelCaptureKeyUpAndDownsEj6QFlagsIN2Qt16KeyboardModifierEES3_ @ 54 NONAME
	_ZN12XQKeyCaptureC1Ev @ 55 NONAME
	_ZN12XQKeyCaptureC2Ev @ 56 NONAME
	_ZN12XQKeyCaptureD1Ev @ 57 NONAME
	_ZN12XQKeyCaptureD2Ev @ 58 NONAME
	_ZNK12XQKeyCapture11errorStringEv @ 59 NONAME
	_ZNK12XQKeyCapture7errorIdEv @ 60 NONAME
	_ZN12XQKeyCapture17captureRemoteKeysE6QFlagsINS_13CapturingFlagEE @ 61 NONAME
	_ZN12XQKeyCapture23cancelCaptureRemoteKeysE6QFlagsINS_13CapturingFlagEE @ 62 NONAME
	_ZN12XQKeyCapture24remoteEventType_KeyPressEv @ 63 NONAME
	_ZN12XQKeyCapture26remoteEventType_KeyReleaseEv @ 64 NONAME

