EXPORTS
	_ZN13XQSettingsKeyC1ENS_6TargetElm @ 1 NONAME
	_ZN13XQSettingsKeyC2ENS_6TargetElm @ 2 NONAME
	_ZN13XQSettingsKeyD1Ev @ 3 NONAME
	_ZN13XQSettingsKeyD2Ev @ 4 NONAME
	_ZN17XQSettingsManager11itemDeletedERK13XQSettingsKey @ 5 NONAME
	_ZN17XQSettingsManager11qt_metacallEN11QMetaObject4CallEiPPv @ 6 NONAME
	_ZN17XQSettingsManager11qt_metacastEPKc @ 7 NONAME
	_ZN17XQSettingsManager12valueChangedERK13XQSettingsKeyRK8QVariant @ 8 NONAME
	_ZN17XQSettingsManager13readItemValueERK13XQSettingsKeyNS_4TypeE @ 9 NONAME
	_ZN17XQSettingsManager14stopMonitoringERK13XQSettingsKey @ 10 NONAME
	_ZN17XQSettingsManager14writeItemValueERK13XQSettingsKeyRK8QVariant @ 11 NONAME
	_ZN17XQSettingsManager15startMonitoringERK13XQSettingsKeyNS_4TypeE @ 12 NONAME
	_ZN17XQSettingsManager16staticMetaObjectE @ 13 NONAME DATA 16
	_ZN17XQSettingsManager19getStaticMetaObjectEv @ 14 NONAME
	_ZN17XQSettingsManagerC1EP7QObject @ 15 NONAME
	_ZN17XQSettingsManagerC2EP7QObject @ 16 NONAME
	_ZN17XQSettingsManagerD0Ev @ 17 NONAME
	_ZN17XQSettingsManagerD1Ev @ 18 NONAME
	_ZN17XQSettingsManagerD2Ev @ 19 NONAME
	_ZN24XQCentralRepositoryUtils15failTransactionEl @ 20 NONAME
	_ZN24XQCentralRepositoryUtils15resetRepositoryEl @ 21 NONAME
	_ZN24XQCentralRepositoryUtils16startTransactionElNS_15TransactionModeE @ 22 NONAME
	_ZN24XQCentralRepositoryUtils17cancelTransactionEl @ 23 NONAME
	_ZN24XQCentralRepositoryUtils17commitTransactionEl @ 24 NONAME
	_ZN24XQCentralRepositoryUtils8findKeysERK33XQCentralRepositorySearchCriteria @ 25 NONAME
	_ZN24XQCentralRepositoryUtils8resetKeyERK30XQCentralRepositorySettingsKey @ 26 NONAME
	_ZN24XQCentralRepositoryUtils9createKeyERK30XQCentralRepositorySettingsKeyRK8QVariant @ 27 NONAME
	_ZN24XQCentralRepositoryUtils9deleteKeyERK30XQCentralRepositorySettingsKey @ 28 NONAME
	_ZN24XQCentralRepositoryUtilsC1ER17XQSettingsManagerP7QObject @ 29 NONAME
	_ZN24XQCentralRepositoryUtilsC2ER17XQSettingsManagerP7QObject @ 30 NONAME
	_ZN24XQCentralRepositoryUtilsD0Ev @ 31 NONAME
	_ZN24XQCentralRepositoryUtilsD1Ev @ 32 NONAME
	_ZN24XQCentralRepositoryUtilsD2Ev @ 33 NONAME
	_ZN26XQPublishAndSubscribeUtils14definePropertyERK32XQPublishAndSubscribeSettingsKeyN17XQSettingsManager4TypeE @ 34 NONAME
	_ZN26XQPublishAndSubscribeUtils14definePropertyERK32XQPublishAndSubscribeSettingsKeyN17XQSettingsManager4TypeERK35XQPublishAndSubscribeSecurityPolicyS7_ @ 35 NONAME
	_ZN26XQPublishAndSubscribeUtils14deletePropertyERK32XQPublishAndSubscribeSettingsKey @ 36 NONAME
	_ZN26XQPublishAndSubscribeUtilsC1ER17XQSettingsManagerP7QObject @ 37 NONAME
	_ZN26XQPublishAndSubscribeUtilsC2ER17XQSettingsManagerP7QObject @ 38 NONAME
	_ZN26XQPublishAndSubscribeUtilsD0Ev @ 39 NONAME
	_ZN26XQPublishAndSubscribeUtilsD1Ev @ 40 NONAME
	_ZN26XQPublishAndSubscribeUtilsD2Ev @ 41 NONAME
	_ZN30XQCentralRepositorySettingsKeyC1Elm @ 42 NONAME
	_ZN30XQCentralRepositorySettingsKeyC2Elm @ 43 NONAME
	_ZN30XQCentralRepositorySettingsKeyD1Ev @ 44 NONAME
	_ZN30XQCentralRepositorySettingsKeyD2Ev @ 45 NONAME
	_ZN32XQPublishAndSubscribeSettingsKeyC1Elm @ 46 NONAME
	_ZN32XQPublishAndSubscribeSettingsKeyC2Elm @ 47 NONAME
	_ZN32XQPublishAndSubscribeSettingsKeyD1Ev @ 48 NONAME
	_ZN32XQPublishAndSubscribeSettingsKeyD2Ev @ 49 NONAME
	_ZN33XQCentralRepositorySearchCriteria16setValueCriteriaERK8QVariantb @ 50 NONAME
	_ZN33XQCentralRepositorySearchCriteriaC1Elmm @ 51 NONAME
	_ZN33XQCentralRepositorySearchCriteriaC2Elmm @ 52 NONAME
	_ZN33XQCentralRepositorySearchCriteriaD1Ev @ 53 NONAME
	_ZN33XQCentralRepositorySearchCriteriaD2Ev @ 54 NONAME
	_ZN35XQPublishAndSubscribeSecurityPolicyC1E5QListINS_10CapabilityEE @ 55 NONAME
	_ZN35XQPublishAndSubscribeSecurityPolicyC1ENS_13SecPolicyTypeE @ 56 NONAME
	_ZN35XQPublishAndSubscribeSecurityPolicyC1ENS_8SecureIdE5QListINS_10CapabilityEE @ 57 NONAME
	_ZN35XQPublishAndSubscribeSecurityPolicyC1ENS_8VendorIdE5QListINS_10CapabilityEE @ 58 NONAME
	_ZN35XQPublishAndSubscribeSecurityPolicyC2E5QListINS_10CapabilityEE @ 59 NONAME
	_ZN35XQPublishAndSubscribeSecurityPolicyC2ENS_13SecPolicyTypeE @ 60 NONAME
	_ZN35XQPublishAndSubscribeSecurityPolicyC2ENS_8SecureIdE5QListINS_10CapabilityEE @ 61 NONAME
	_ZN35XQPublishAndSubscribeSecurityPolicyC2ENS_8VendorIdE5QListINS_10CapabilityEE @ 62 NONAME
	_ZN35XQPublishAndSubscribeSecurityPolicyD1Ev @ 63 NONAME
	_ZN35XQPublishAndSubscribeSecurityPolicyD2Ev @ 64 NONAME
	_ZNK13XQSettingsKey3keyEv @ 65 NONAME
	_ZNK13XQSettingsKey3uidEv @ 66 NONAME
	_ZNK13XQSettingsKey6targetEv @ 67 NONAME
	_ZNK17XQSettingsManager10metaObjectEv @ 68 NONAME
	_ZNK17XQSettingsManager5errorEv @ 69 NONAME
	_ZNK24XQCentralRepositoryUtils16transactionStateEl @ 70 NONAME
	_ZNK33XQCentralRepositorySearchCriteria10partialKeyEv @ 71 NONAME
	_ZNK33XQCentralRepositorySearchCriteria13repositoryUidEv @ 72 NONAME
	_ZNK33XQCentralRepositorySearchCriteria16negativeCriteriaEv @ 73 NONAME
	_ZNK33XQCentralRepositorySearchCriteria5valueEv @ 74 NONAME
	_ZNK33XQCentralRepositorySearchCriteria7bitMaskEv @ 75 NONAME
	_ZNK35XQPublishAndSubscribeSecurityPolicy12capabilitiesEv @ 76 NONAME
	_ZNK35XQPublishAndSubscribeSecurityPolicy13secPolicyTypeEv @ 77 NONAME
	_ZNK35XQPublishAndSubscribeSecurityPolicy8secureIdEv @ 78 NONAME
	_ZNK35XQPublishAndSubscribeSecurityPolicy8vendorIdEv @ 79 NONAME
	_ZTI17XQSettingsManager @ 80 NONAME
	_ZTI24XQCentralRepositoryUtils @ 81 NONAME
	_ZTI26XQPublishAndSubscribeUtils @ 82 NONAME
	_ZTV17XQSettingsManager @ 83 NONAME
	_ZTV24XQCentralRepositoryUtils @ 84 NONAME
	_ZTV26XQPublishAndSubscribeUtils @ 85 NONAME

