EXPORTS
	??0CWBXMLGenerator@@IAE@XZ @ 1 NONAME ; CWBXMLGenerator::CWBXMLGenerator(void)
	??0CWBXMLSyncMLGenerator@@QAE@J@Z @ 2 NONAME ; CWBXMLSyncMLGenerator::CWBXMLSyncMLGenerator(long)
	??0CXMLElement@@QAE@XZ @ 3 NONAME ; CXMLElement::CXMLElement(void)
	??0TXMLElementParams@@QAE@PAXPAV?$CNSmlStack@VCXMLElement@@@@1@Z @ 4 NONAME ; TXMLElementParams::TXMLElementParams(void *, class CNSmlStack<class CXMLElement> *, class CNSmlStack<class CXMLElement> *)
	??0sml_alert_s@@QAE@XZ @ 5 NONAME ; sml_alert_s::sml_alert_s(void)
	??0sml_atomic_s@@QAE@W4SmlProtoElement_t@@@Z @ 6 NONAME ; sml_atomic_s::sml_atomic_s(enum SmlProtoElement_t)
	??0sml_chal_s@@QAE@XZ @ 7 NONAME ; sml_chal_s::sml_chal_s(void)
	??0sml_cred_s@@QAE@XZ @ 8 NONAME ; sml_cred_s::sml_cred_s(void)
	??0sml_devinf_ctcap_s@@QAE@PAVCXMLElement@@@Z @ 9 NONAME ; sml_devinf_ctcap_s::sml_devinf_ctcap_s(class CXMLElement *)
	??0sml_devinf_ctcap_s@@QAE@XZ @ 10 NONAME ; sml_devinf_ctcap_s::sml_devinf_ctcap_s(void)
	??0sml_devinf_ctcaplist_s@@QAE@XZ @ 11 NONAME ; sml_devinf_ctcaplist_s::sml_devinf_ctcaplist_s(void)
	??0sml_devinf_ctdata_s@@QAE@XZ @ 12 NONAME ; sml_devinf_ctdata_s::sml_devinf_ctdata_s(void)
	??0sml_devinf_ctdatalist_s@@QAE@XZ @ 13 NONAME ; sml_devinf_ctdatalist_s::sml_devinf_ctdatalist_s(void)
	??0sml_devinf_ctdataprop_s@@QAE@XZ @ 14 NONAME ; sml_devinf_ctdataprop_s::sml_devinf_ctdataprop_s(void)
	??0sml_devinf_ctdataproplist_s@@QAE@XZ @ 15 NONAME ; sml_devinf_ctdataproplist_s::sml_devinf_ctdataproplist_s(void)
	??0sml_devinf_datastore_s@@QAE@XZ @ 16 NONAME ; sml_devinf_datastore_s::sml_devinf_datastore_s(void)
	??0sml_devinf_datastorelist_s@@QAE@XZ @ 17 NONAME ; sml_devinf_datastorelist_s::sml_devinf_datastorelist_s(void)
	??0sml_devinf_devinf_s@@QAE@XZ @ 18 NONAME ; sml_devinf_devinf_s::sml_devinf_devinf_s(void)
	??0sml_devinf_dsmem_s@@QAE@XZ @ 19 NONAME ; sml_devinf_dsmem_s::sml_devinf_dsmem_s(void)
	??0sml_devinf_ext_s@@QAE@XZ @ 20 NONAME ; sml_devinf_ext_s::sml_devinf_ext_s(void)
	??0sml_devinf_extlist_s@@QAE@XZ @ 21 NONAME ; sml_devinf_extlist_s::sml_devinf_extlist_s(void)
	??0sml_devinf_filtercap_s@@QAE@XZ @ 22 NONAME ; sml_devinf_filtercap_s::sml_devinf_filtercap_s(void)
	??0sml_devinf_filtercaplist_s@@QAE@XZ @ 23 NONAME ; sml_devinf_filtercaplist_s::sml_devinf_filtercaplist_s(void)
	??0sml_devinf_property_s@@QAE@XZ @ 24 NONAME ; sml_devinf_property_s::sml_devinf_property_s(void)
	??0sml_devinf_propertylist_s@@QAE@XZ @ 25 NONAME ; sml_devinf_propertylist_s::sml_devinf_propertylist_s(void)
	??0sml_devinf_propparam_s@@QAE@XZ @ 26 NONAME ; sml_devinf_propparam_s::sml_devinf_propparam_s(void)
	??0sml_devinf_propparamlist_s@@QAE@XZ @ 27 NONAME ; sml_devinf_propparamlist_s::sml_devinf_propparamlist_s(void)
	??0sml_devinf_synccap_s@@QAE@XZ @ 28 NONAME ; sml_devinf_synccap_s::sml_devinf_synccap_s(void)
	??0sml_devinf_xmit_s@@QAE@XZ @ 29 NONAME ; sml_devinf_xmit_s::sml_devinf_xmit_s(void)
	??0sml_devinf_xmitlist_s@@QAE@XZ @ 30 NONAME ; sml_devinf_xmitlist_s::sml_devinf_xmitlist_s(void)
	??0sml_exec_s@@QAE@XZ @ 31 NONAME ; sml_exec_s::sml_exec_s(void)
	??0sml_field_or_record_s@@QAE@XZ @ 32 NONAME ; sml_field_or_record_s::sml_field_or_record_s(void)
	??0sml_filter_s@@QAE@XZ @ 33 NONAME ; sml_filter_s::sml_filter_s(void)
	??0sml_generic_s@@QAE@XZ @ 34 NONAME ; sml_generic_s::sml_generic_s(void)
	??0sml_get_put_s@@QAE@XZ @ 35 NONAME ; sml_get_put_s::sml_get_put_s(void)
	??0sml_item_list_s@@QAE@XZ @ 36 NONAME ; sml_item_list_s::sml_item_list_s(void)
	??0sml_item_s@@QAE@XZ @ 37 NONAME ; sml_item_s::sml_item_s(void)
	??0sml_map_item_list_s@@QAE@XZ @ 38 NONAME ; sml_map_item_list_s::sml_map_item_list_s(void)
	??0sml_map_item_s@@QAE@XZ @ 39 NONAME ; sml_map_item_s::sml_map_item_s(void)
	??0sml_map_s@@QAE@XZ @ 40 NONAME ; sml_map_s::sml_map_s(void)
	??0sml_metinf_anchor_s@@QAE@XZ @ 41 NONAME ; sml_metinf_anchor_s::sml_metinf_anchor_s(void)
	??0sml_metinf_mem_s@@QAE@XZ @ 42 NONAME ; sml_metinf_mem_s::sml_metinf_mem_s(void)
	??0sml_metinf_metinf_s@@QAE@XZ @ 43 NONAME ; sml_metinf_metinf_s::sml_metinf_metinf_s(void)
	??0sml_pcdata_list_s@@QAE@XZ @ 44 NONAME ; sml_pcdata_list_s::sml_pcdata_list_s(void)
	??0sml_pcdata_s@@QAE@W4SmlPcdataType_t@@W4SmlPcdataExtension_t@@@Z @ 45 NONAME ; sml_pcdata_s::sml_pcdata_s(enum SmlPcdataType_t, enum SmlPcdataExtension_t)
	??0sml_pcdata_s@@QAE@XZ @ 46 NONAME ; sml_pcdata_s::sml_pcdata_s(void)
	??0sml_results_s@@QAE@XZ @ 47 NONAME ; sml_results_s::sml_results_s(void)
	??0sml_search_s@@QAE@XZ @ 48 NONAME ; sml_search_s::sml_search_s(void)
	??0sml_source_list_s@@QAE@XZ @ 49 NONAME ; sml_source_list_s::sml_source_list_s(void)
	??0sml_source_or_target_parent_s@@QAE@XZ @ 50 NONAME ; sml_source_or_target_parent_s::sml_source_or_target_parent_s(void)
	??0sml_source_ref_list_s@@QAE@XZ @ 51 NONAME ; sml_source_ref_list_s::sml_source_ref_list_s(void)
	??0sml_source_s@@QAE@XZ @ 52 NONAME ; sml_source_s::sml_source_s(void)
	??0sml_status_s@@QAE@XZ @ 53 NONAME ; sml_status_s::sml_status_s(void)
	??0sml_sync_hdr_s@@QAE@XZ @ 54 NONAME ; sml_sync_hdr_s::sml_sync_hdr_s(void)
	??0sml_sync_s@@QAE@XZ @ 55 NONAME ; sml_sync_s::sml_sync_s(void)
	??0sml_target_ref_list_s@@QAE@XZ @ 56 NONAME ; sml_target_ref_list_s::sml_target_ref_list_s(void)
	??0sml_target_s@@QAE@XZ @ 57 NONAME ; sml_target_s::sml_target_s(void)
	??1CWBXMLDevInfDocHandler@@UAE@XZ @ 58 NONAME ; CWBXMLDevInfDocHandler::~CWBXMLDevInfDocHandler(void)
	??1CWBXMLGenerator@@MAE@XZ @ 59 NONAME ; CWBXMLGenerator::~CWBXMLGenerator(void)
	??1CWBXMLParser@@UAE@XZ @ 60 NONAME ; CWBXMLParser::~CWBXMLParser(void)
	??1CWBXMLSyncMLDocHandler@@UAE@XZ @ 61 NONAME ; CWBXMLSyncMLDocHandler::~CWBXMLSyncMLDocHandler(void)
	??1CXMLDynamicWorkspace@@UAE@XZ @ 62 NONAME ; CXMLDynamicWorkspace::~CXMLDynamicWorkspace(void)
	??1CXMLElement@@UAE@XZ @ 63 NONAME ; CXMLElement::~CXMLElement(void)
	??1CXMLStaticWorkspace@@UAE@XZ @ 64 NONAME ; CXMLStaticWorkspace::~CXMLStaticWorkspace(void)
	??1sml_alert_s@@UAE@XZ @ 65 NONAME ; sml_alert_s::~sml_alert_s(void)
	??1sml_atomic_s@@UAE@XZ @ 66 NONAME ; sml_atomic_s::~sml_atomic_s(void)
	??1sml_chal_s@@UAE@XZ @ 67 NONAME ; sml_chal_s::~sml_chal_s(void)
	??1sml_cred_s@@UAE@XZ @ 68 NONAME ; sml_cred_s::~sml_cred_s(void)
	??1sml_devinf_ctcap_s@@UAE@XZ @ 69 NONAME ; sml_devinf_ctcap_s::~sml_devinf_ctcap_s(void)
	??1sml_devinf_ctcaplist_s@@UAE@XZ @ 70 NONAME ; sml_devinf_ctcaplist_s::~sml_devinf_ctcaplist_s(void)
	??1sml_devinf_ctdata_s@@UAE@XZ @ 71 NONAME ; sml_devinf_ctdata_s::~sml_devinf_ctdata_s(void)
	??1sml_devinf_ctdatalist_s@@UAE@XZ @ 72 NONAME ; sml_devinf_ctdatalist_s::~sml_devinf_ctdatalist_s(void)
	??1sml_devinf_ctdataprop_s@@UAE@XZ @ 73 NONAME ; sml_devinf_ctdataprop_s::~sml_devinf_ctdataprop_s(void)
	??1sml_devinf_ctdataproplist_s@@UAE@XZ @ 74 NONAME ; sml_devinf_ctdataproplist_s::~sml_devinf_ctdataproplist_s(void)
	??1sml_devinf_datastore_s@@UAE@XZ @ 75 NONAME ; sml_devinf_datastore_s::~sml_devinf_datastore_s(void)
	??1sml_devinf_datastorelist_s@@UAE@XZ @ 76 NONAME ; sml_devinf_datastorelist_s::~sml_devinf_datastorelist_s(void)
	??1sml_devinf_devinf_s@@UAE@XZ @ 77 NONAME ; sml_devinf_devinf_s::~sml_devinf_devinf_s(void)
	??1sml_devinf_dsmem_s@@UAE@XZ @ 78 NONAME ; sml_devinf_dsmem_s::~sml_devinf_dsmem_s(void)
	??1sml_devinf_ext_s@@UAE@XZ @ 79 NONAME ; sml_devinf_ext_s::~sml_devinf_ext_s(void)
	??1sml_devinf_extlist_s@@UAE@XZ @ 80 NONAME ; sml_devinf_extlist_s::~sml_devinf_extlist_s(void)
	??1sml_devinf_filtercap_s@@UAE@XZ @ 81 NONAME ; sml_devinf_filtercap_s::~sml_devinf_filtercap_s(void)
	??1sml_devinf_filtercaplist_s@@UAE@XZ @ 82 NONAME ; sml_devinf_filtercaplist_s::~sml_devinf_filtercaplist_s(void)
	??1sml_devinf_property_s@@UAE@XZ @ 83 NONAME ; sml_devinf_property_s::~sml_devinf_property_s(void)
	??1sml_devinf_propertylist_s@@UAE@XZ @ 84 NONAME ; sml_devinf_propertylist_s::~sml_devinf_propertylist_s(void)
	??1sml_devinf_propparam_s@@UAE@XZ @ 85 NONAME ; sml_devinf_propparam_s::~sml_devinf_propparam_s(void)
	??1sml_devinf_propparamlist_s@@UAE@XZ @ 86 NONAME ; sml_devinf_propparamlist_s::~sml_devinf_propparamlist_s(void)
	??1sml_devinf_synccap_s@@UAE@XZ @ 87 NONAME ; sml_devinf_synccap_s::~sml_devinf_synccap_s(void)
	??1sml_devinf_xmit_s@@UAE@XZ @ 88 NONAME ; sml_devinf_xmit_s::~sml_devinf_xmit_s(void)
	??1sml_devinf_xmitlist_s@@UAE@XZ @ 89 NONAME ; sml_devinf_xmitlist_s::~sml_devinf_xmitlist_s(void)
	??1sml_exec_s@@UAE@XZ @ 90 NONAME ; sml_exec_s::~sml_exec_s(void)
	??1sml_field_or_record_s@@UAE@XZ @ 91 NONAME ; sml_field_or_record_s::~sml_field_or_record_s(void)
	??1sml_filter_s@@UAE@XZ @ 92 NONAME ; sml_filter_s::~sml_filter_s(void)
	??1sml_generic_s@@UAE@XZ @ 93 NONAME ; sml_generic_s::~sml_generic_s(void)
	??1sml_get_put_s@@UAE@XZ @ 94 NONAME ; sml_get_put_s::~sml_get_put_s(void)
	??1sml_item_list_s@@UAE@XZ @ 95 NONAME ; sml_item_list_s::~sml_item_list_s(void)
	??1sml_item_s@@UAE@XZ @ 96 NONAME ; sml_item_s::~sml_item_s(void)
	??1sml_map_item_list_s@@UAE@XZ @ 97 NONAME ; sml_map_item_list_s::~sml_map_item_list_s(void)
	??1sml_map_item_s@@UAE@XZ @ 98 NONAME ; sml_map_item_s::~sml_map_item_s(void)
	??1sml_map_s@@UAE@XZ @ 99 NONAME ; sml_map_s::~sml_map_s(void)
	??1sml_metinf_anchor_s@@UAE@XZ @ 100 NONAME ; sml_metinf_anchor_s::~sml_metinf_anchor_s(void)
	??1sml_metinf_mem_s@@UAE@XZ @ 101 NONAME ; sml_metinf_mem_s::~sml_metinf_mem_s(void)
	??1sml_metinf_metinf_s@@UAE@XZ @ 102 NONAME ; sml_metinf_metinf_s::~sml_metinf_metinf_s(void)
	??1sml_pcdata_list_s@@UAE@XZ @ 103 NONAME ; sml_pcdata_list_s::~sml_pcdata_list_s(void)
	??1sml_pcdata_s@@UAE@XZ @ 104 NONAME ; sml_pcdata_s::~sml_pcdata_s(void)
	??1sml_results_s@@UAE@XZ @ 105 NONAME ; sml_results_s::~sml_results_s(void)
	??1sml_search_s@@UAE@XZ @ 106 NONAME ; sml_search_s::~sml_search_s(void)
	??1sml_source_list_s@@UAE@XZ @ 107 NONAME ; sml_source_list_s::~sml_source_list_s(void)
	??1sml_source_or_target_parent_s@@UAE@XZ @ 108 NONAME ; sml_source_or_target_parent_s::~sml_source_or_target_parent_s(void)
	??1sml_source_ref_list_s@@UAE@XZ @ 109 NONAME ; sml_source_ref_list_s::~sml_source_ref_list_s(void)
	??1sml_source_s@@UAE@XZ @ 110 NONAME ; sml_source_s::~sml_source_s(void)
	??1sml_status_s@@UAE@XZ @ 111 NONAME ; sml_status_s::~sml_status_s(void)
	??1sml_sync_hdr_s@@UAE@XZ @ 112 NONAME ; sml_sync_hdr_s::~sml_sync_hdr_s(void)
	??1sml_sync_s@@UAE@XZ @ 113 NONAME ; sml_sync_s::~sml_sync_s(void)
	??1sml_target_ref_list_s@@UAE@XZ @ 114 NONAME ; sml_target_ref_list_s::~sml_target_ref_list_s(void)
	??1sml_target_s@@UAE@XZ @ 115 NONAME ; sml_target_s::~sml_target_s(void)
	?AddAttributeL@CWBXMLAttributes@@QAEXEABVTDesC8@@@Z @ 116 NONAME ; void CWBXMLAttributes::AddAttributeL(unsigned char, class TDesC8 const &)
	?AddElementL@CWBXMLGenerator@@IAEXEABVTDesC8@@ABVCWBXMLAttributes@@W4TWBXMLContentFormat@@@Z @ 117 NONAME ; void CWBXMLGenerator::AddElementL(unsigned char, class TDesC8 const &, class CWBXMLAttributes const &, enum TWBXMLContentFormat)
	?AddElementL@CWBXMLGenerator@@IAEXEABVTDesC8@@W4TWBXMLContentFormat@@@Z @ 118 NONAME ; void CWBXMLGenerator::AddElementL(unsigned char, class TDesC8 const &, enum TWBXMLContentFormat)
	?AddEntityL@CWBXMLGenerator@@IAEXK@Z @ 119 NONAME ; void CWBXMLGenerator::AddEntityL(unsigned long)
	?AddExtL@CWBXMLGenerator@@IAEXH@Z @ 120 NONAME ; void CWBXMLGenerator::AddExtL(int)
	?AddExt_IL@CWBXMLGenerator@@IAEXHABVTDesC8@@@Z @ 121 NONAME ; void CWBXMLGenerator::AddExt_IL(int, class TDesC8 const &)
	?AddExt_TL@CWBXMLGenerator@@IAEXHK@Z @ 122 NONAME ; void CWBXMLGenerator::AddExt_TL(int, unsigned long)
	?Attribute@CWBXMLAttributes@@QBEABVCWBXMLAttribute@@H@Z @ 123 NONAME ; class CWBXMLAttribute const & CWBXMLAttributes::Attribute(int) const
	?BeginDocumentL@CWBXMLGenerator@@IAEXEJKABVTDesC8@@@Z @ 124 NONAME ; void CWBXMLGenerator::BeginDocumentL(unsigned char, long, unsigned long, class TDesC8 const &)
	?BeginElementL@CWBXMLGenerator@@IAEXEHH@Z @ 125 NONAME ; void CWBXMLGenerator::BeginElementL(unsigned char, int, int)
	?BeginElementL@CXMLElement@@UAEPAV1@EABUTXMLElementParams@@@Z @ 126 NONAME ; class CXMLElement * CXMLElement::BeginElementL(unsigned char, struct TXMLElementParams const &)
	?BeginElementL@sml_syncml_s@@UAEPAVCXMLElement@@EABUTXMLElementParams@@@Z @ 127 NONAME ; class CXMLElement * sml_syncml_s::BeginElementL(unsigned char, struct TXMLElementParams const &)
	?Buffer@CXMLDynamicWorkspace@@UBE?AVTPtrC8@@XZ @ 128 NONAME ; class TPtrC8 CXMLDynamicWorkspace::Buffer(void) const
	?Buffer@CXMLStaticWorkspace@@UBE?AVTPtrC8@@XZ @ 129 NONAME ; class TPtrC8 CXMLStaticWorkspace::Buffer(void) const
	?Count@CWBXMLAttributes@@QBEHXZ @ 130 NONAME ; int CWBXMLAttributes::Count(void) const
	?CreateDynamicWorkspaceL@CWBXMLGenerator@@IAEXXZ @ 131 NONAME ; void CWBXMLGenerator::CreateDynamicWorkspaceL(void)
	?CreateStaticWorkspaceL@CWBXMLGenerator@@IAEXH@Z @ 132 NONAME ; void CWBXMLGenerator::CreateStaticWorkspaceL(int)
	?CreateWorkspaceL@CWBXMLDevInfGenerator@@QAEXXZ @ 133 NONAME ; void CWBXMLDevInfGenerator::CreateWorkspaceL(void)
	?CreateWorkspaceL@CWBXMLSyncMLGenerator@@QAEXH@Z @ 134 NONAME ; void CWBXMLSyncMLGenerator::CreateWorkspaceL(int)
	?Data@CXMLElement@@UBE?AVTPtrC8@@XZ @ 135 NONAME ; class TPtrC8 CXMLElement::Data(void) const
	?Data@sml_pcdata_s@@UBE?AVTPtrC8@@XZ @ 136 NONAME ; class TPtrC8 sml_pcdata_s::Data(void) const
	?DataConsumed@CWBXMLSyncMLGenerator@@QBEHXZ @ 137 NONAME ; int CWBXMLSyncMLGenerator::DataConsumed(void) const
	?Document@CWBXMLGenerator@@QAE?AVTPtrC8@@XZ @ 138 NONAME ; class TPtrC8 CWBXMLGenerator::Document(void)
	?EndElementL@CWBXMLGenerator@@IAEXXZ @ 139 NONAME ; void CWBXMLGenerator::EndElementL(void)
	?EndElementL@CXMLElement@@UAE?AW4TAction@1@PAXE@Z @ 140 NONAME ; enum CXMLElement::TAction CXMLElement::EndElementL(void *, unsigned char)
	?EndElementL@sml_syncml_s@@UAE?AW4TAction@CXMLElement@@PAXE@Z @ 141 NONAME ; enum CXMLElement::TAction sml_syncml_s::EndElementL(void *, unsigned char)
	?FreeContent@sml_pcdata_s@@QAEXXZ @ 142 NONAME ; void sml_pcdata_s::FreeContent(void)
	?FreeSize@CXMLDynamicWorkspace@@UBEHXZ @ 143 NONAME ; int CXMLDynamicWorkspace::FreeSize(void) const
	?FreeSize@CXMLStaticWorkspace@@UBEHXZ @ 144 NONAME ; int CXMLStaticWorkspace::FreeSize(void) const
	?HandleResult@CWBXMLGenerator@@IAEHHH@Z @ 145 NONAME ; int CWBXMLGenerator::HandleResult(int, int)
	?ItemIndex@CWBXMLSyncMLGenerator@@QBEHXZ @ 146 NONAME ; int CWBXMLSyncMLGenerator::ItemIndex(void) const
	?MaxSize@CXMLDynamicWorkspace@@UBEHXZ @ 147 NONAME ; int CXMLDynamicWorkspace::MaxSize(void) const
	?MaxSize@CXMLStaticWorkspace@@UBEHXZ @ 148 NONAME ; int CXMLStaticWorkspace::MaxSize(void) const
	?Name@CWBXMLAttribute@@QBEEXZ @ 149 NONAME ; unsigned char CWBXMLAttribute::Name(void) const
	?NeedsCleanup@CXMLElement@@UBEHXZ @ 150 NONAME ; int CXMLElement::NeedsCleanup(void) const
	?NeedsCleanup@sml_syncml_s@@UBEHXZ @ 151 NONAME ; int sml_syncml_s::NeedsCleanup(void) const
	?NewL@CWBXMLAttributes@@SAPAV1@XZ @ 152 NONAME ; class CWBXMLAttributes * CWBXMLAttributes::NewL(void)
	?NewL@CWBXMLDevInfDocHandler@@SAPAV1@PAVMWBXMLDevInfCallbacks@@@Z @ 153 NONAME ; class CWBXMLDevInfDocHandler * CWBXMLDevInfDocHandler::NewL(class MWBXMLDevInfCallbacks *)
	?NewL@CWBXMLParser@@SAPAV1@XZ @ 154 NONAME ; class CWBXMLParser * CWBXMLParser::NewL(void)
	?NewL@CWBXMLSyncMLDocHandler@@SAPAV1@PAVMWBXMLSyncMLCallbacks@@@Z @ 155 NONAME ; class CWBXMLSyncMLDocHandler * CWBXMLSyncMLDocHandler::NewL(class MWBXMLSyncMLCallbacks *)
	?NewL@CXMLDynamicWorkspace@@SAPAV1@XZ @ 156 NONAME ; class CXMLDynamicWorkspace * CXMLDynamicWorkspace::NewL(void)
	?NewL@CXMLStaticWorkspace@@SAPAV1@H@Z @ 157 NONAME ; class CXMLStaticWorkspace * CXMLStaticWorkspace::NewL(int)
	?NewLC@CWBXMLAttributes@@SAPAV1@XZ @ 158 NONAME ; class CWBXMLAttributes * CWBXMLAttributes::NewLC(void)
	?ParseL@CWBXMLParser@@QAE?AW4TWBXMLParserError@@XZ @ 159 NONAME ; enum TWBXMLParserError CWBXMLParser::ParseL(void)
	?Reset@CWBXMLGenerator@@QAEXXZ @ 160 NONAME ; void CWBXMLGenerator::Reset(void)
	?Reset@CXMLDynamicWorkspace@@UAEXXZ @ 161 NONAME ; void CXMLDynamicWorkspace::Reset(void)
	?Reset@CXMLStaticWorkspace@@UAEXXZ @ 162 NONAME ; void CXMLStaticWorkspace::Reset(void)
	?SetContentLength@CWBXMLSyncMLGenerator@@QAEXH@Z @ 163 NONAME ; void CWBXMLSyncMLGenerator::SetContentLength(int)
	?SetDataL@CXMLElement@@UAEXABVTDesC8@@@Z @ 164 NONAME ; void CXMLElement::SetDataL(class TDesC8 const &)
	?SetDataL@sml_pcdata_s@@UAEXABVTDesC8@@@Z @ 165 NONAME ; void sml_pcdata_s::SetDataL(class TDesC8 const &)
	?SetDocumentHandler@CWBXMLParser@@QAEXPAVMWBXMLDocumentHandler@@@Z @ 166 NONAME ; void CWBXMLParser::SetDocumentHandler(class MWBXMLDocumentHandler *)
	?SetDocumentL@CWBXMLParser@@QAEXAAVRReadStream@@@Z @ 167 NONAME ; void CWBXMLParser::SetDocumentL(class RReadStream &)
	?SetExtensionHandler@CWBXMLParser@@QAEXPAVMWBXMLExtensionHandler@@@Z @ 168 NONAME ; void CWBXMLParser::SetExtensionHandler(class MWBXMLExtensionHandler *)
	?SetTruncate@CWBXMLSyncMLGenerator@@QAEXH@Z @ 169 NONAME ; void CWBXMLSyncMLGenerator::SetTruncate(int)
	?SetWorkspace@CWBXMLGenerator@@IAEXPAVCXMLWorkspace@@H@Z @ 170 NONAME ; void CWBXMLGenerator::SetWorkspace(class CXMLWorkspace *, int)
	?Size@CXMLDynamicWorkspace@@UBEHXZ @ 171 NONAME ; int CXMLDynamicWorkspace::Size(void) const
	?Size@CXMLStaticWorkspace@@UBEHXZ @ 172 NONAME ; int CXMLStaticWorkspace::Size(void) const
	?SwitchCodePageL@CWBXMLGenerator@@IAEXE@Z @ 173 NONAME ; void CWBXMLGenerator::SwitchCodePageL(unsigned char)
	?TruncateL@sml_pcdata_s@@QAEXH@Z @ 174 NONAME ; void sml_pcdata_s::TruncateL(int)
	?Validate@CXMLElement@@UAEHXZ @ 175 NONAME ; int CXMLElement::Validate(void)
	?Value@CWBXMLAttribute@@QBE?AVTPtrC8@@XZ @ 176 NONAME ; class TPtrC8 CWBXMLAttribute::Value(void) const
	?WasTruncated@CWBXMLSyncMLGenerator@@QAEHXZ @ 177 NONAME ; int CWBXMLSyncMLGenerator::WasTruncated(void)
	?Workspace@CWBXMLGenerator@@IBEPAVCXMLWorkspace@@XZ @ 178 NONAME ; class CXMLWorkspace * CWBXMLGenerator::Workspace(void) const
	?WriteL@CXMLDynamicWorkspace@@UAEXABVTDesC8@@@Z @ 179 NONAME ; void CXMLDynamicWorkspace::WriteL(class TDesC8 const &)
	?WriteL@CXMLDynamicWorkspace@@UAEXE@Z @ 180 NONAME ; void CXMLDynamicWorkspace::WriteL(unsigned char)
	?WriteL@CXMLStaticWorkspace@@UAEXABVTDesC8@@@Z @ 181 NONAME ; void CXMLStaticWorkspace::WriteL(class TDesC8 const &)
	?WriteL@CXMLStaticWorkspace@@UAEXE@Z @ 182 NONAME ; void CXMLStaticWorkspace::WriteL(unsigned char)
	?smlAddCmd@CWBXMLSyncMLGenerator@@QAEHPAUsml_generic_s@@@Z @ 183 NONAME ; int CWBXMLSyncMLGenerator::smlAddCmd(struct sml_generic_s *)
	?smlAlertCmd@CWBXMLSyncMLGenerator@@QAEHPAUsml_alert_s@@@Z @ 184 NONAME ; int CWBXMLSyncMLGenerator::smlAlertCmd(struct sml_alert_s *)
	?smlCopyCmd@CWBXMLSyncMLGenerator@@QAEHPAUsml_generic_s@@@Z @ 185 NONAME ; int CWBXMLSyncMLGenerator::smlCopyCmd(struct sml_generic_s *)
	?smlDeleteCmd@CWBXMLSyncMLGenerator@@QAEHPAUsml_generic_s@@@Z @ 186 NONAME ; int CWBXMLSyncMLGenerator::smlDeleteCmd(struct sml_generic_s *)
	?smlDeviceInfo@CWBXMLDevInfGenerator@@QAEHPAUsml_devinf_devinf_s@@@Z @ 187 NONAME ; int CWBXMLDevInfGenerator::smlDeviceInfo(struct sml_devinf_devinf_s *)
	?smlEndAtomic@CWBXMLSyncMLGenerator@@QAEHXZ @ 188 NONAME ; int CWBXMLSyncMLGenerator::smlEndAtomic(void)
	?smlEndMessage@CWBXMLSyncMLGenerator@@QAEHE@Z @ 189 NONAME ; int CWBXMLSyncMLGenerator::smlEndMessage(unsigned char)
	?smlEndSequence@CWBXMLSyncMLGenerator@@QAEHXZ @ 190 NONAME ; int CWBXMLSyncMLGenerator::smlEndSequence(void)
	?smlEndSync@CWBXMLSyncMLGenerator@@QAEHXZ @ 191 NONAME ; int CWBXMLSyncMLGenerator::smlEndSync(void)
	?smlGetCmd@CWBXMLSyncMLGenerator@@QAEHPAUsml_get_put_s@@@Z @ 192 NONAME ; int CWBXMLSyncMLGenerator::smlGetCmd(struct sml_get_put_s *)
	?smlMapCmd@CWBXMLSyncMLGenerator@@QAEHPAUsml_map_s@@@Z @ 193 NONAME ; int CWBXMLSyncMLGenerator::smlMapCmd(struct sml_map_s *)
	?smlMoveCmd@CWBXMLSyncMLGenerator@@QAEHPAUsml_generic_s@@@Z @ 194 NONAME ; int CWBXMLSyncMLGenerator::smlMoveCmd(struct sml_generic_s *)
	?smlPutCmd@CWBXMLSyncMLGenerator@@QAEHPAUsml_get_put_s@@@Z @ 195 NONAME ; int CWBXMLSyncMLGenerator::smlPutCmd(struct sml_get_put_s *)
	?smlReplaceCmd@CWBXMLSyncMLGenerator@@QAEHPAUsml_generic_s@@@Z @ 196 NONAME ; int CWBXMLSyncMLGenerator::smlReplaceCmd(struct sml_generic_s *)
	?smlResultsCmd@CWBXMLSyncMLGenerator@@QAEHPAUsml_results_s@@@Z @ 197 NONAME ; int CWBXMLSyncMLGenerator::smlResultsCmd(struct sml_results_s *)
	?smlStartAtomic@CWBXMLSyncMLGenerator@@QAEHPAUsml_atomic_s@@@Z @ 198 NONAME ; int CWBXMLSyncMLGenerator::smlStartAtomic(struct sml_atomic_s *)
	?smlStartMessage@CWBXMLSyncMLGenerator@@QAEHPAUsml_sync_hdr_s@@@Z @ 199 NONAME ; int CWBXMLSyncMLGenerator::smlStartMessage(struct sml_sync_hdr_s *)
	?smlStartSequence@CWBXMLSyncMLGenerator@@QAEHPAUsml_atomic_s@@@Z @ 200 NONAME ; int CWBXMLSyncMLGenerator::smlStartSequence(struct sml_atomic_s *)
	?smlStartSync@CWBXMLSyncMLGenerator@@QAEHPAUsml_sync_s@@@Z @ 201 NONAME ; int CWBXMLSyncMLGenerator::smlStartSync(struct sml_sync_s *)
	?smlStatusCmd@CWBXMLSyncMLGenerator@@QAEHPAUsml_status_s@@@Z @ 202 NONAME ; int CWBXMLSyncMLGenerator::smlStatusCmd(struct sml_status_s *)

