EXPORTS
	??1CRTSecManager@@UAE@XZ @ 1 NONAME ; CRTSecManager::~CRTSecManager(void)
	??1CRTSecMgrScriptSession@@UAE@XZ @ 2 NONAME ; CRTSecMgrScriptSession::~CRTSecMgrScriptSession(void)
	??1CTrustInfo@@UAE@XZ @ 3 NONAME ; CTrustInfo::~CTrustInfo(void)
	?GetScriptSessionL@CRTSecManager@@QAEPAVCRTSecMgrScriptSession@@HABVCTrustInfo@@PAVMSecMgrPromptHandler@@@Z @ 4 NONAME ; class CRTSecMgrScriptSession * CRTSecManager::GetScriptSessionL(int, class CTrustInfo const &, class MSecMgrPromptHandler *)
	?GetScriptSessionL@CRTSecManager@@QAEPAVCRTSecMgrScriptSession@@HHPAVMSecMgrPromptHandler@@ABVTDesC16@@@Z @ 5 NONAME ; class CRTSecMgrScriptSession * CRTSecManager::GetScriptSessionL(int, int, class MSecMgrPromptHandler *, class TDesC16 const &)
	?IsAllowed@CRTSecMgrScriptSession@@QAEHABV?$RArray@W4TCapability@@@@@Z @ 6 NONAME ; int CRTSecMgrScriptSession::IsAllowed(class RArray<enum TCapability> const &)
	?IsAllowed@CRTSecMgrScriptSession@@QAEHABV?$RArray@W4TCapability@@@@AAV2@@Z @ 7 NONAME ; int CRTSecMgrScriptSession::IsAllowed(class RArray<enum TCapability> const &, class RArray<enum TCapability> &)
	?NewL@CRTSecManager@@SAPAV1@XZ @ 8 NONAME ; class CRTSecManager * CRTSecManager::NewL(void)
	?NewL@CTrustInfo@@SAPAV1@XZ @ 9 NONAME ; class CTrustInfo * CTrustInfo::NewL(void)
	?NewLC@CRTSecManager@@SAPAV1@XZ @ 10 NONAME ; class CRTSecManager * CRTSecManager::NewLC(void)
	?NewLC@CTrustInfo@@SAPAV1@XZ @ 11 NONAME ; class CTrustInfo * CTrustInfo::NewLC(void)
	?RegisterScript@CRTSecManager@@QAEHHABVCTrustInfo@@@Z @ 12 NONAME ; int CRTSecManager::RegisterScript(int, class CTrustInfo const &)
	?RegisterScript@CRTSecManager@@QAEHHABVTDesC16@@ABVCTrustInfo@@@Z @ 13 NONAME ; int CRTSecManager::RegisterScript(int, class TDesC16 const &, class CTrustInfo const &)
	?SetPolicy@CRTSecManager@@QAEHABVRFile@@@Z @ 14 NONAME ; int CRTSecManager::SetPolicy(class RFile const &)
	?SetPolicy@CRTSecManager@@QAEHABVTDesC8@@@Z @ 15 NONAME ; int CRTSecManager::SetPolicy(class TDesC8 const &)
	?UnRegisterScript@CRTSecManager@@QAEHHH@Z @ 16 NONAME ; int CRTSecManager::UnRegisterScript(int, int)
	?UnSetPolicy@CRTSecManager@@QAEHH@Z @ 17 NONAME ; int CRTSecManager::UnSetPolicy(int)
	?UpdatePolicy@CRTSecManager@@QAEHHABVRFile@@@Z @ 18 NONAME ; int CRTSecManager::UpdatePolicy(int, class RFile const &)
	?UpdatePolicy@CRTSecManager@@QAEHHABVTDesC8@@@Z @ 19 NONAME ; int CRTSecManager::UpdatePolicy(int, class TDesC8 const &)
	?IsAllowed@CRTSecMgrScriptSession@@QAEHABV?$RArray@W4TCapability@@@@VTUid@@V?$TBuf@$0BAA@@@@Z @ 20 NONAME ; int CRTSecMgrScriptSession::IsAllowed(class RArray<enum TCapability> const &, class TUid, class TBuf<256>)
	?SetApplicationNameL@CRTSecMgrScriptSession@@QAEXABVTDesC16@@@Z @ 21 NONAME ; void CRTSecMgrScriptSession::SetApplicationNameL(class TDesC16 const &)

