EXPORTS
	?LibEntryL@@YAPAVCScriptBase@@AAVCTestModuleIf@@@Z @ 1 NONAME ; class CScriptBase * LibEntryL(class CTestModuleIf &)
	?DeleteL@CCPixIndexer@@QAEXABVTDesC16@@@Z @ 2 NONAME ; void CCPixIndexer::DeleteL(class TDesC16 const &)
	?DeleteL@CCPixIndexer@@QAEXAAVMCPixIndexingRequestObserver@@ABVTDesC16@@@Z @ 3 NONAME ; void CCPixIndexer::DeleteL(class MCPixIndexingRequestObserver &, class TDesC16 const &)
	?SetAnalyzerL@RSearchServerSubSession@@QAEXABVTDesC16@@@Z @ 4 NONAME ; void RSearchServerSubSession::SetAnalyzerL(class TDesC16 const &)
	?GetDocument@RSearchServerSubSession@@QAEXHAAVTRequestStatus@@@Z @ 5 NONAME ; void RSearchServerSubSession::GetDocument(int, class TRequestStatus &)
	?SetAnalyzerL@CCPixIndexer@@QAEXAAVMCPixSetAnalyzerRequestObserver@@ABVTDesC16@@@Z @ 6 NONAME ; void CCPixIndexer::SetAnalyzerL(class MCPixSetAnalyzerRequestObserver &, class TDesC16 const &)
	?Update@RSearchServerSubSession@@QAEXABVTDesC8@@AAVTRequestStatus@@@Z @ 7 NONAME ; void RSearchServerSubSession::Update(class TDesC8 const &, class TRequestStatus &)
	?Delete@RSearchServerSubSession@@QAEXABVTDesC16@@AAVTRequestStatus@@@Z @ 8 NONAME ; void RSearchServerSubSession::Delete(class TDesC16 const &, class TRequestStatus &)
	?SetAnalyzer@RSearchServerSubSession@@QAEXABVTDesC16@@AAVTRequestStatus@@@Z @ 9 NONAME ; void RSearchServerSubSession::SetAnalyzer(class TDesC16 const &, class TRequestStatus &)
	?ForceHouseKeeping@RSearchServerSession@@QAEHXZ @ 10 NONAME ; int RSearchServerSession::ForceHouseKeeping(void)
	?DeleteL@RSearchServerSubSession@@QAEXABVTDesC16@@@Z @ 11 NONAME ; void RSearchServerSubSession::DeleteL(class TDesC16 const &)
	?IsDatabaseOpen@CCPixIndexer@@QBEHXZ @ 12 NONAME ; int CCPixIndexer::IsDatabaseOpen(void) const
	?Flush@RSearchServerSubSession@@QAEXAAVTRequestStatus@@@Z @ 13 NONAME ; void RSearchServerSubSession::Flush(class TRequestStatus &)
	?UpdateL@CCPixIndexer@@QAEXAAVMCPixIndexingRequestObserver@@ABVCSearchDocument@@@Z @ 14 NONAME ; void CCPixIndexer::UpdateL(class MCPixIndexingRequestObserver &, class CSearchDocument const &)
	?ResetL@CCPixIndexer@@QAEXAAVMCPixIndexingRequestObserver@@@Z @ 15 NONAME ; void CCPixIndexer::ResetL(class MCPixIndexingRequestObserver &)
	?StopHouseKeeping@RSearchServerSession@@QAEHXZ @ 16 NONAME ; int RSearchServerSession::StopHouseKeeping(void)
	?Connect@RSearchServerSession@@QAEHXZ @ 17 NONAME ; int RSearchServerSession::Connect(void)
	?AddL@CCPixIndexer@@QAEXABVCSearchDocument@@@Z @ 18 NONAME ; void CCPixIndexer::AddL(class CSearchDocument const &)
	?SetAnalyzerL@CCPixIndexer@@QAEXABVTDesC16@@@Z @ 19 NONAME ; void CCPixIndexer::SetAnalyzerL(class TDesC16 const &)
	?CancelAll@RSearchServerSubSession@@QBEXXZ @ 20 NONAME ; void RSearchServerSubSession::CancelAll(void) const
	?ResetL@RSearchServerSubSession@@QAEXXZ @ 21 NONAME ; void RSearchServerSubSession::ResetL(void)
	?Close@RSearchServerSession@@QAEXXZ @ 22 NONAME ; void RSearchServerSession::Close(void)
	?GetDocumentObjectL@RSearchServerSubSession@@QAEPAVCSearchDocument@@XZ @ 23 NONAME ; class CSearchDocument * RSearchServerSubSession::GetDocumentObjectL(void)
	?GetBaseAppClass@CCPixIndexer@@QBEABVTDesC16@@XZ @ 24 NONAME ; class TDesC16 const & CCPixIndexer::GetBaseAppClass(void) const
	?UpdateL@CCPixIndexer@@QAEXABVCSearchDocument@@@Z @ 25 NONAME ; void CCPixIndexer::UpdateL(class CSearchDocument const &)
	?OpenDatabaseL@CCPixIndexer@@QAEXABVTDesC16@@@Z @ 26 NONAME ; void CCPixIndexer::OpenDatabaseL(class TDesC16 const &)
	?OpenDatabaseL@CCPixIndexer@@QAEXAAVMCPixOpenDatabaseRequestObserver@@ABVTDesC16@@@Z @ 27 NONAME ; void CCPixIndexer::OpenDatabaseL(class MCPixOpenDatabaseRequestObserver &, class TDesC16 const &)
	??0RSearchServerSession@@QAE@XZ @ 28 NONAME ; RSearchServerSession::RSearchServerSession(void)
	?SearchL@RSearchServerSubSession@@QAEXABVTDesC16@@@Z @ 29 NONAME ; void RSearchServerSubSession::SearchL(class TDesC16 const &)
	?DefineVolume@RSearchServerSession@@QAEHABVTDesC16@@0@Z @ 30 NONAME ; int RSearchServerSession::DefineVolume(class TDesC16 const &, class TDesC16 const &)
	?NewL@CCPixIndexer@@SAPAV1@AAVRSearchServerSession@@@Z @ 31 NONAME ; class CCPixIndexer * CCPixIndexer::NewL(class RSearchServerSession &)
	?Version@RSearchServerSession@@QBE?AVTVersion@@XZ @ 32 NONAME ; class TVersion RSearchServerSession::Version(void) const
	?AddL@CCPixIndexer@@QAEXAAVMCPixIndexingRequestObserver@@ABVCSearchDocument@@@Z @ 33 NONAME ; void CCPixIndexer::AddL(class MCPixIndexingRequestObserver &, class CSearchDocument const &)
	?Reset@RSearchServerSubSession@@QAEXAAVTRequestStatus@@@Z @ 34 NONAME ; void RSearchServerSubSession::Reset(class TRequestStatus &)
	?Add@RSearchServerSubSession@@QAEXABVTDesC8@@AAVTRequestStatus@@@Z @ 35 NONAME ; void RSearchServerSubSession::Add(class TDesC8 const &, class TRequestStatus &)
	?GetDocumentL@RSearchServerSubSession@@QAEPAVCSearchDocument@@H@Z @ 36 NONAME ; class CSearchDocument * RSearchServerSubSession::GetDocumentL(int)
	?FlushL@CCPixIndexer@@QAEXAAVMCPixIndexingRequestObserver@@@Z @ 37 NONAME ; void CCPixIndexer::FlushL(class MCPixIndexingRequestObserver &)
	?FlushL@RSearchServerSubSession@@QAEXXZ @ 38 NONAME ; void RSearchServerSubSession::FlushL(void)
	?FlushL@CCPixIndexer@@QAEXXZ @ 39 NONAME ; void CCPixIndexer::FlushL(void)
	?ResetL@CCPixIndexer@@QAEXXZ @ 40 NONAME ; void CCPixIndexer::ResetL(void)
	?ContinueHouseKeeping@RSearchServerSession@@QAEHXZ @ 41 NONAME ; int RSearchServerSession::ContinueHouseKeeping(void)
	?NewLC@CCPixIndexer@@SAPAV1@AAVRSearchServerSession@@@Z @ 42 NONAME ; class CCPixIndexer * CCPixIndexer::NewLC(class RSearchServerSession &)
	??1CCPixIndexer@@UAE@XZ @ 43 NONAME ; CCPixIndexer::~CCPixIndexer(void)
	?Search@RSearchServerSubSession@@QAEXABVTDesC16@@AAVTRequestStatus@@@Z @ 44 NONAME ; void RSearchServerSubSession::Search(class TDesC16 const &, class TRequestStatus &)
	?UpdateL@RSearchServerSubSession@@QAEXABVTDesC8@@@Z @ 45 NONAME ; void RSearchServerSubSession::UpdateL(class TDesC8 const &)
	?UnDefineVolume@RSearchServerSession@@QAEHABVTDesC16@@@Z @ 46 NONAME ; int RSearchServerSession::UnDefineVolume(class TDesC16 const &)
	?AddL@RSearchServerSubSession@@QAEXABVTDesC8@@@Z @ 47 NONAME ; void RSearchServerSubSession::AddL(class TDesC8 const &)
	?OpenDatabaseL@CCPixSearcher@@QAEXAAVMCPixOpenDatabaseRequestObserver@@ABVTDesC16@@@Z @ 48 NONAME ; void CCPixSearcher::OpenDatabaseL(class MCPixOpenDatabaseRequestObserver &, class TDesC16 const &)
	?NewL@CSearchDocument@@SAPAV1@ABVTDesC16@@00W4TFilterId@1@@Z @ 49 NONAME ; class CSearchDocument * CSearchDocument::NewL(class TDesC16 const &, class TDesC16 const &, class TDesC16 const &, enum CSearchDocument::TFilterId)
	?SearchL@CCPixSearcher@@QAEHABVTDesC16@@0@Z @ 50 NONAME ; int CCPixSearcher::SearchL(class TDesC16 const &, class TDesC16 const &)
	?OpenDatabaseL@CCPixSearcher@@QAEXABVTDesC16@@@Z @ 51 NONAME ; void CCPixSearcher::OpenDatabaseL(class TDesC16 const &)
	?SetAnalyzerL@CCPixSearcher@@QAEXABVTDesC16@@@Z @ 52 NONAME ; void CCPixSearcher::SetAnalyzerL(class TDesC16 const &)
	?Size@CSearchDocument@@QBEHXZ @ 53 NONAME ; int CSearchDocument::Size(void) const
	?AppClass@CSearchDocument@@QBEABVTDesC16@@XZ @ 54 NONAME ; class TDesC16 const & CSearchDocument::AppClass(void) const
	?NewL@CCPixSearcher@@SAPAV1@AAVRSearchServerSession@@ABVTDesC16@@@Z @ 55 NONAME ; class CCPixSearcher * CCPixSearcher::NewL(class RSearchServerSession &, class TDesC16 const &)
	?GetDocumentL@CCPixSearcher@@QAEPAVCSearchDocument@@H@Z @ 56 NONAME ; class CSearchDocument * CCPixSearcher::GetDocumentL(int)
	??1CDocumentField@@UAE@XZ @ 57 NONAME ; CDocumentField::~CDocumentField(void)
	??1CSearchDocument@@UAE@XZ @ 58 NONAME ; CSearchDocument::~CSearchDocument(void)
	?Value@CDocumentField@@QBEABVTDesC16@@XZ @ 59 NONAME ; class TDesC16 const & CDocumentField::Value(void) const
	?NewLC@CDocumentField@@SAPAV1@AAVRReadStream@@@Z @ 60 NONAME ; class CDocumentField * CDocumentField::NewLC(class RReadStream &)
	?IsDatabaseOpen@CCPixSearcher@@QBEHXZ @ 61 NONAME ; int CCPixSearcher::IsDatabaseOpen(void) const
	?SearchL@CCPixSearcher@@QAEXAAVMCPixSearchRequestObserver@@ABVTDesC16@@1@Z @ 62 NONAME ; void CCPixSearcher::SearchL(class MCPixSearchRequestObserver &, class TDesC16 const &, class TDesC16 const &)
	?Id@CSearchDocument@@QBEABVTDesC16@@XZ @ 63 NONAME ; class TDesC16 const & CSearchDocument::Id(void) const
	?GetBaseAppClass@CCPixSearcher@@QBEABVTDesC16@@XZ @ 64 NONAME ; class TDesC16 const & CCPixSearcher::GetBaseAppClass(void) const
	?InternalizeL@CDocumentField@@QAEXAAVRReadStream@@@Z @ 65 NONAME ; void CDocumentField::InternalizeL(class RReadStream &)
	?AddExcerptL@CSearchDocument@@QAEXABVTDesC16@@@Z @ 66 NONAME ; void CSearchDocument::AddExcerptL(class TDesC16 const &)
	?Config@CDocumentField@@QBEHXZ @ 67 NONAME ; int CDocumentField::Config(void) const
	?Boost@CDocumentField@@QBEMXZ @ 68 NONAME ; float CDocumentField::Boost(void) const
	?ExternalizeL@CSearchDocument@@QBEXAAVRWriteStream@@@Z @ 69 NONAME ; void CSearchDocument::ExternalizeL(class RWriteStream &) const
	?Size@CDocumentField@@QBEHXZ @ 70 NONAME ; int CDocumentField::Size(void) const
	?NewL@CDocumentField@@SAPAV1@AAVRReadStream@@@Z @ 71 NONAME ; class CDocumentField * CDocumentField::NewL(class RReadStream &)
	?NewLC@CSearchDocument@@SAPAV1@ABVTDesC16@@00W4TFilterId@1@@Z @ 72 NONAME ; class CSearchDocument * CSearchDocument::NewLC(class TDesC16 const &, class TDesC16 const &, class TDesC16 const &, enum CSearchDocument::TFilterId)
	?NewLC@CDocumentField@@SAPAV1@ABVTDesC16@@0H@Z @ 73 NONAME ; class CDocumentField * CDocumentField::NewLC(class TDesC16 const &, class TDesC16 const &, int)
	??1CCPixSearcher@@UAE@XZ @ 74 NONAME ; CCPixSearcher::~CCPixSearcher(void)
	?SetBoost@CSearchDocument@@QAEXM@Z @ 75 NONAME ; void CSearchDocument::SetBoost(float)
	?NewL@CDocumentField@@SAPAV1@ABVTDesC16@@0H@Z @ 76 NONAME ; class CDocumentField * CDocumentField::NewL(class TDesC16 const &, class TDesC16 const &, int)
	?Field@CSearchDocument@@QBEPBVCDocumentField@@ABVTDesC16@@@Z @ 77 NONAME ; class CDocumentField const * CSearchDocument::Field(class TDesC16 const &) const
	?NewLC@CSearchDocument@@SAPAV1@AAVRReadStream@@@Z @ 78 NONAME ; class CSearchDocument * CSearchDocument::NewLC(class RReadStream &)
	?AddFieldL@CSearchDocument@@QAEAAVCDocumentField@@ABVTDesC16@@0H@Z @ 79 NONAME ; class CDocumentField & CSearchDocument::AddFieldL(class TDesC16 const &, class TDesC16 const &, int)
	?Field@CSearchDocument@@QBEABVCDocumentField@@H@Z @ 80 NONAME ; class CDocumentField const & CSearchDocument::Field(int) const
	?FieldCount@CSearchDocument@@QBEHXZ @ 81 NONAME ; int CSearchDocument::FieldCount(void) const
	?NewLC@CCPixSearcher@@SAPAV1@AAVRSearchServerSession@@ABVTDesC16@@@Z @ 82 NONAME ; class CCPixSearcher * CCPixSearcher::NewLC(class RSearchServerSession &, class TDesC16 const &)
	?Excerpt@CSearchDocument@@QBEABVTDesC16@@XZ @ 83 NONAME ; class TDesC16 const & CSearchDocument::Excerpt(void) const
	?SetAnalyzerL@CCPixSearcher@@QAEXAAVMCPixSetAnalyzerRequestObserver@@ABVTDesC16@@@Z @ 84 NONAME ; void CCPixSearcher::SetAnalyzerL(class MCPixSetAnalyzerRequestObserver &, class TDesC16 const &)
	?Boost@CSearchDocument@@QBEMXZ @ 85 NONAME ; float CSearchDocument::Boost(void) const
	?InternalizeL@CSearchDocument@@QAEXAAVRReadStream@@@Z @ 86 NONAME ; void CSearchDocument::InternalizeL(class RReadStream &)
	?Name@CDocumentField@@QBEABVTDesC16@@XZ @ 87 NONAME ; class TDesC16 const & CDocumentField::Name(void) const
	?RemoveField@CSearchDocument@@QAEHABVTDesC16@@@Z @ 88 NONAME ; int CSearchDocument::RemoveField(class TDesC16 const &)
	?GetDocumentL@CCPixSearcher@@QAEXHAAVMCPixNextDocumentRequestObserver@@@Z @ 89 NONAME ; void CCPixSearcher::GetDocumentL(int, class MCPixNextDocumentRequestObserver &)
	?SetBoost@CDocumentField@@QAEXM@Z @ 90 NONAME ; void CDocumentField::SetBoost(float)
	?NewL@CSearchDocument@@SAPAV1@AAVRReadStream@@@Z @ 91 NONAME ; class CSearchDocument * CSearchDocument::NewL(class RReadStream &)
	?ExternalizeL@CDocumentField@@QBEXAAVRWriteStream@@@Z @ 92 NONAME ; void CDocumentField::ExternalizeL(class RWriteStream &) const

