EXPORTS
	_ZN10CNSmlCtCap10SetCtTypeLERK6TDesC8 @ 1 NONAME
	_ZN10CNSmlCtCap14SetFieldLevelLEv @ 2 NONAME
	_ZN10CNSmlCtCap15AddDevInfPropLCERK6TDesC8 @ 3 NONAME
	_ZN10CNSmlCtCap9SetVerCtLERK6TDesC8 @ 4 NONAME
	_ZN11CNSmlDbCaps10AddCtCapLCEv @ 5 NONAME
	_ZN11CNSmlDbCaps10SetRxPrefLERK6TDesC8S2_ @ 6 NONAME
	_ZN11CNSmlDbCaps10SetTxPrefLERK6TDesC8S2_ @ 7 NONAME
	_ZN11CNSmlDbCaps11SetSyncTypeENS_14ENSmlSyncTypesE @ 8 NONAME
	_ZN11CNSmlDbCaps12AddFilterRxLERK6TDesC8S2_ @ 9 NONAME
	_ZN11CNSmlDbCaps13SetSourceRefLERK6TDesC8 @ 10 NONAME
	_ZN11CNSmlDbCaps14AddFilterCapLCERK6TDesC8S2_ @ 11 NONAME
	_ZN11CNSmlDbCaps15SetDisplayNameLERK6TDesC8 @ 12 NONAME
	_ZN11CNSmlDbCaps15SetMaxGuidSizeLERK6TDesC8 @ 13 NONAME
	_ZN11CNSmlDbCaps18ConvertDeviceInfoLEP19sml_devinf_devinf_s @ 14 NONAME
	_ZN11CNSmlDbCaps27SetSupportHierarchicalSyncLEv @ 15 NONAME
	_ZN11CNSmlDbCaps4NewLEv @ 16 NONAME
	_ZN11CNSmlDbCaps5NewLCEv @ 17 NONAME
	_ZN11CNSmlDbCaps6AddRxLERK6TDesC8S2_ @ 18 NONAME
	_ZN11CNSmlDbCaps6AddTxLERK6TDesC8S2_ @ 19 NONAME
	_ZN11CNSmlDbCapsD0Ev @ 20 NONAME
	_ZN11CNSmlDbCapsD1Ev @ 21 NONAME
	_ZN11CNSmlDbCapsD2Ev @ 22 NONAME
	_ZN11CNSmlDbMeta10SetFormatLERK6TDesC8 @ 23 NONAME
	_ZN11CNSmlDbMeta11SetVersionLERK6TDesC8 @ 24 NONAME
	_ZN11CNSmlDbMeta13SetMemFreeIDLERK6TDesC8 @ 25 NONAME
	_ZN11CNSmlDbMeta13SetMemSharedLERK6TDesC8 @ 26 NONAME
	_ZN11CNSmlDbMeta13SetNextNonceLERK6TDesC8 @ 27 NONAME
	_ZN11CNSmlDbMeta14SetAnchorLastLERK6TDesC8 @ 28 NONAME
	_ZN11CNSmlDbMeta14SetAnchorNextLERK6TDesC8 @ 29 NONAME
	_ZN11CNSmlDbMeta14SetMaxMsgSizeLERK6TDesC8 @ 30 NONAME
	_ZN11CNSmlDbMeta14SetMaxObjSizeLERK6TDesC8 @ 31 NONAME
	_ZN11CNSmlDbMeta14SetMemFreeMemLERK6TDesC8 @ 32 NONAME
	_ZN11CNSmlDbMeta4NewLEv @ 33 NONAME
	_ZN11CNSmlDbMeta5ClearEv @ 34 NONAME
	_ZN11CNSmlDbMeta5NewLCEv @ 35 NONAME
	_ZN11CNSmlDbMeta7SetEmiLERK11CDesC8Array @ 36 NONAME
	_ZN11CNSmlDbMeta8SetMarkLERK6TDesC8 @ 37 NONAME
	_ZN11CNSmlDbMeta8SetSizeLERK6TDesC8 @ 38 NONAME
	_ZN11CNSmlDbMeta8SetTypeLERK6TDesC8 @ 39 NONAME
	_ZN11CNSmlDbMetaD0Ev @ 40 NONAME
	_ZN11CNSmlDbMetaD1Ev @ 41 NONAME
	_ZN11CNSmlDbMetaD2Ev @ 42 NONAME
	_ZN14CNSmlFilterCap12AddPropNameLERK6TDesC8 @ 43 NONAME
	_ZN14CNSmlFilterCap17AddFilterKeywordLERK6TDesC8 @ 44 NONAME
	_ZN14CNSmlPropParam11AddValEnumLERK6TDesC8 @ 45 NONAME
	_ZN14CNSmlPropParam12SetDataTypeLERK6TDesC8 @ 46 NONAME
	_ZN14CNSmlPropParam15SetDisplayNameLERK6TDesC8 @ 47 NONAME
	_ZN14TNSmlCtCapData7CompareERKS_S1_ @ 48 NONAME
	_ZN14TNSmlCtCapDataC1ENS_13TNSmlCtCapTagERK6TDesC8 @ 49 NONAME
	_ZN14TNSmlCtCapDataC2ENS_13TNSmlCtCapTagERK6TDesC8 @ 50 NONAME
	_ZN15CNSmlDevInfProp10AddParamLCERK6TDesC8 @ 51 NONAME
	_ZN15CNSmlDevInfProp11AddValEnumLERK6TDesC8 @ 52 NONAME
	_ZN15CNSmlDevInfProp11SetMaxSizeLERK6TDesC8 @ 53 NONAME
	_ZN15CNSmlDevInfProp12SetDataTypeLERK6TDesC8 @ 54 NONAME
	_ZN15CNSmlDevInfProp12SetMaxOccurLERK6TDesC8 @ 55 NONAME
	_ZN15CNSmlDevInfProp14SetNoTruncateLEv @ 56 NONAME
	_ZN15CNSmlDevInfProp15SetDisplayNameLERK6TDesC8 @ 57 NONAME
	_ZN15CNSmlDevInfPropC1EP21sml_devinf_property_s @ 58 NONAME
	_ZN15CNSmlDevInfPropC2EP21sml_devinf_property_s @ 59 NONAME
	_ZN15CNSmlDevInfPropD0Ev @ 60 NONAME
	_ZN15CNSmlDevInfPropD1Ev @ 61 NONAME
	_ZN15CNSmlDevInfPropD2Ev @ 62 NONAME
	_ZN18CNSmlCtCapsHandler10GetCtCapsLER9CArrayFixI14TNSmlCtCapDataERK6TDesC8 @ 63 NONAME
	_ZN18CNSmlCtCapsHandlerC1EP22sml_devinf_ctcaplist_s @ 64 NONAME
	_ZN18CNSmlCtCapsHandlerC2EP22sml_devinf_ctcaplist_s @ 65 NONAME
	_ZN18CNSmlDbMetaHandlerC1EP19sml_metinf_metinf_s @ 66 NONAME
	_ZN18CNSmlDbMetaHandlerC1Ev @ 67 NONAME
	_ZN18CNSmlDbMetaHandlerC2EP19sml_metinf_metinf_s @ 68 NONAME
	_ZN18CNSmlDbMetaHandlerC2Ev @ 69 NONAME
	_ZN18TNSmlFilterCapData7CompareERKS_S1_ @ 70 NONAME
	_ZN18TNSmlFilterCapDataC1ENS_17TNSmlFilterCapTagERK6TDesC8 @ 71 NONAME
	_ZN18TNSmlFilterCapDataC2ENS_17TNSmlFilterCapTagERK6TDesC8 @ 72 NONAME
	_ZN21TNSmlDbCapsSerializerC1Ev @ 73 NONAME
	_ZN21TNSmlDbCapsSerializerC2Ev @ 74 NONAME
	_ZN22CNSmlFilterCapsHandler14GetFilterCapsLER9CArrayFixI18TNSmlFilterCapDataERK6TDesC8 @ 75 NONAME
	_ZN22CNSmlFilterCapsHandlerC1EP26sml_devinf_filtercaplist_s @ 76 NONAME
	_ZN22CNSmlFilterCapsHandlerC2EP26sml_devinf_filtercaplist_s @ 77 NONAME
	_ZNK11CNSmlDbCaps10DatastoreLEv @ 78 NONAME
	_ZNK11CNSmlDbCaps10FilterCapsEv @ 79 NONAME
	_ZNK11CNSmlDbCaps14CreateHandlerLEv @ 80 NONAME
	_ZNK11CNSmlDbCaps16SupportsSyncTypeENS_14ENSmlSyncTypesE @ 81 NONAME
	_ZNK11CNSmlDbCaps24CreateFilterCapsHandlerLEv @ 82 NONAME
	_ZNK11CNSmlDbCaps6CtCapsEv @ 83 NONAME
	_ZNK11CNSmlDbMeta14CreateHandlerLEv @ 84 NONAME
	_ZNK11CNSmlDbMeta7MetInfLEv @ 85 NONAME
	_ZNK18CNSmlDbMetaHandler10AnchorLastEv @ 86 NONAME
	_ZNK18CNSmlDbMetaHandler10AnchorNextEv @ 87 NONAME
	_ZNK18CNSmlDbMetaHandler10MaxMsgSizeEv @ 88 NONAME
	_ZNK18CNSmlDbMetaHandler10MaxObjSizeEv @ 89 NONAME
	_ZNK18CNSmlDbMetaHandler10MemFreeMemEv @ 90 NONAME
	_ZNK18CNSmlDbMetaHandler4MarkEv @ 91 NONAME
	_ZNK18CNSmlDbMetaHandler4SizeEv @ 92 NONAME
	_ZNK18CNSmlDbMetaHandler4TypeEv @ 93 NONAME
	_ZNK18CNSmlDbMetaHandler6FormatEv @ 94 NONAME
	_ZNK18CNSmlDbMetaHandler7GetEmiLER11CDesC8Array @ 95 NONAME
	_ZNK18CNSmlDbMetaHandler7VersionEv @ 96 NONAME
	_ZNK18CNSmlDbMetaHandler9MemFreeIDEv @ 97 NONAME
	_ZNK18CNSmlDbMetaHandler9MemSharedEv @ 98 NONAME
	_ZNK18CNSmlDbMetaHandler9NextNonceEv @ 99 NONAME
	_ZNK21TNSmlDbCapsSerializer12ExternalizeLERK11CNSmlDbCapsR12RWriteStream @ 100 NONAME
	_ZNK21TNSmlDbCapsSerializer12ExternalizeLERK11CNSmlDbCapsRK9CArrayFixI18TNSmlFilterCapDataER12RWriteStream @ 101 NONAME
	_ZNK21TNSmlDbCapsSerializer12InternalizeLER11RReadStream @ 102 NONAME
	_ZNK21TNSmlDbCapsSerializer8SetFromLERK16CSmlDataPropertyR15CNSmlDevInfProp @ 103 NONAME
	_ZTI10CNSmlCtCap @ 104 NONAME ; #<TI>#
	_ZTI11CNSmlDbCaps @ 105 NONAME ; #<TI>#
	_ZTI11CNSmlDbMeta @ 106 NONAME ; #<TI>#
	_ZTI14CNSmlFilterCap @ 107 NONAME ; #<TI>#
	_ZTI15CNSmlDevInfProp @ 108 NONAME ; #<TI>#
	_ZTV10CNSmlCtCap @ 109 NONAME ; #<VT>#
	_ZTV11CNSmlDbCaps @ 110 NONAME ; #<VT>#
	_ZTV11CNSmlDbMeta @ 111 NONAME ; #<VT>#
	_ZTV14CNSmlFilterCap @ 112 NONAME ; #<VT>#
	_ZTV15CNSmlDevInfProp @ 113 NONAME ; #<VT>#

