EXPORTS
	?tr@ContentInfoDbRead@@SA?AVQString@@PBD0H@Z @ 1 NONAME ; class QString ContentInfoDbRead::tr(char const *, char const *, int)
	?tr@ContentInfoDbRead@@SA?AVQString@@PBD0@Z @ 2 NONAME ; class QString ContentInfoDbRead::tr(char const *, char const *)
	?qt_metacast@ContentInfoDbUpdate@@UAEPAXPBD@Z @ 3 NONAME ; void * ContentInfoDbUpdate::qt_metacast(char const *)
	?getPrimaryKeys@ContentInfoDbRead@@QAE?AVQStringList@@XZ @ 4 NONAME ; class QStringList ContentInfoDbRead::getPrimaryKeys(void)
	?d_func@ContentInfoDbRead@@AAEPAVContentInfoDbReadPrivate@@XZ @ 5 NONAME ; class ContentInfoDbReadPrivate * ContentInfoDbRead::d_func(void)
	??0ContentInfoDbRead@@QAE@XZ @ 6 NONAME ; ContentInfoDbRead::ContentInfoDbRead(void)
	?metaObject@ContentInfoDbRead@@UBEPBUQMetaObject@@XZ @ 7 NONAME ; struct QMetaObject const * ContentInfoDbRead::metaObject(void) const
	?UpdateDb@ContentInfoDbUpdate@@QAE_NVQString@@@Z @ 8 NONAME ; bool ContentInfoDbUpdate::UpdateDb(class QString)
	?UpdateIndexStatus@ContentInfoDbUpdate@@QAE_NVQString@@H@Z @ 9 NONAME ; bool ContentInfoDbUpdate::UpdateIndexStatus(class QString, int)
	?qt_metacast@ContentInfoDbRead@@UAEPAXPBD@Z @ 10 NONAME ; void * ContentInfoDbRead::qt_metacast(char const *)
	?trUtf8@ContentInfoDbUpdate@@SA?AVQString@@PBD0@Z @ 11 NONAME ; class QString ContentInfoDbUpdate::trUtf8(char const *, char const *)
	?slotfirstLineMapping@ContentInfoDbUpdate@@QAEXVQStringList@@@Z @ 12 NONAME ; void ContentInfoDbUpdate::slotfirstLineMapping(class QStringList)
	?dataChanged@ContentInfoDbRead@@IAEXXZ @ 13 NONAME ; void ContentInfoDbRead::dataChanged(void)
	?staticMetaObject@ContentInfoDbUpdate@@2UQMetaObject@@B @ 14 NONAME ; struct QMetaObject const ContentInfoDbUpdate::staticMetaObject
	?slotupdateCategoryInfo@ContentInfoDbUpdate@@QAEXV?$QMap@VQString@@V1@@@@Z @ 15 NONAME ; void ContentInfoDbUpdate::slotupdateCategoryInfo(class QMap<class QString, class QString>)
	?trUtf8@ContentInfoDbRead@@SA?AVQString@@PBD0H@Z @ 16 NONAME ; class QString ContentInfoDbRead::trUtf8(char const *, char const *, int)
	?qt_metacall@ContentInfoDbUpdate@@UAEHW4Call@QMetaObject@@HPAPAX@Z @ 17 NONAME ; int ContentInfoDbUpdate::qt_metacall(enum QMetaObject::Call, int, void * *)
	?categoryCount@ContentInfoDbRead@@QAEHXZ @ 18 NONAME ; int ContentInfoDbRead::categoryCount(void)
	?deleteCategory@ContentInfoDbUpdate@@QAEXVQString@@@Z @ 19 NONAME ; void ContentInfoDbUpdate::deleteCategory(class QString)
	?getStaticMetaObject@ContentInfoDbUpdate@@SAABUQMetaObject@@XZ @ 20 NONAME ; struct QMetaObject const & ContentInfoDbUpdate::getStaticMetaObject(void)
	??1ContentInfoDbRead@@UAE@XZ @ 21 NONAME ; ContentInfoDbRead::~ContentInfoDbRead(void)
	??_EContentInfoDbRead@@UAE@I@Z @ 22 NONAME ; ContentInfoDbRead::~ContentInfoDbRead(unsigned int)
	?getLongTaburi@ContentInfoDbRead@@QAE?AVQStringList@@VQString@@0@Z @ 23 NONAME ; class QStringList ContentInfoDbRead::getLongTaburi(class QString, class QString)
	??1ContentInfoDbUpdate@@UAE@XZ @ 24 NONAME ; ContentInfoDbUpdate::~ContentInfoDbUpdate(void)
	?getStaticMetaObject@ContentInfoDbRead@@SAABUQMetaObject@@XZ @ 25 NONAME ; struct QMetaObject const & ContentInfoDbRead::getStaticMetaObject(void)
	?slotupdateFieldmapping@ContentInfoDbUpdate@@QAEXVQString@@VQStringList@@@Z @ 26 NONAME ; void ContentInfoDbUpdate::slotupdateFieldmapping(class QString, class QStringList)
	?d_func@ContentInfoDbRead@@ABEPBVContentInfoDbReadPrivate@@XZ @ 27 NONAME ; class ContentInfoDbReadPrivate const * ContentInfoDbRead::d_func(void) const
	?qt_metacall@ContentInfoDbRead@@UAEHW4Call@QMetaObject@@HPAPAX@Z @ 28 NONAME ; int ContentInfoDbRead::qt_metacall(enum QMetaObject::Call, int, void * *)
	?geturiDetails@ContentInfoDbRead@@QAE_NVQString@@0AAV2@1@Z @ 29 NONAME ; bool ContentInfoDbRead::geturiDetails(class QString, class QString, class QString &, class QString &)
	?slotrelevancyMapping@ContentInfoDbUpdate@@QAEXVQString@@0@Z @ 30 NONAME ; void ContentInfoDbUpdate::slotrelevancyMapping(class QString, class QString)
	?trUtf8@ContentInfoDbRead@@SA?AVQString@@PBD0@Z @ 31 NONAME ; class QString ContentInfoDbRead::trUtf8(char const *, char const *)
	?UpdateBlacklisted@ContentInfoDbUpdate@@QAE_NVQString@@H@Z @ 32 NONAME ; bool ContentInfoDbUpdate::UpdateBlacklisted(class QString, int)
	??0ContentInfoDbUpdate@@QAE@XZ @ 33 NONAME ; ContentInfoDbUpdate::ContentInfoDbUpdate(void)
	??_EContentInfoDbUpdate@@UAE@I@Z @ 34 NONAME ; ContentInfoDbUpdate::~ContentInfoDbUpdate(unsigned int)
	?getActionuri@ContentInfoDbRead@@QAE?AVQStringList@@VQString@@@Z @ 35 NONAME ; class QStringList ContentInfoDbRead::getActionuri(class QString)
	?getShortTaburi@ContentInfoDbRead@@QAE?AVQString@@V2@@Z @ 36 NONAME ; class QString ContentInfoDbRead::getShortTaburi(class QString)
	?InsertPrimaryKey@ContentInfoDbUpdate@@AAE?AVQString@@V2@0V?$QMap@VQString@@V1@@@@Z @ 37 NONAME ; class QString ContentInfoDbUpdate::InsertPrimaryKey(class QString, class QString, class QMap<class QString, class QString>)
	?getValues@ContentInfoDbRead@@QAE?AVQString@@V2@0@Z @ 38 NONAME ; class QString ContentInfoDbRead::getValues(class QString, class QString)
	?metaObject@ContentInfoDbUpdate@@UBEPBUQMetaObject@@XZ @ 39 NONAME ; struct QMetaObject const * ContentInfoDbUpdate::metaObject(void) const
	?tr@ContentInfoDbUpdate@@SA?AVQString@@PBD0@Z @ 40 NONAME ; class QString ContentInfoDbUpdate::tr(char const *, char const *)
	?staticMetaObject@ContentInfoDbRead@@2UQMetaObject@@B @ 41 NONAME ; struct QMetaObject const ContentInfoDbRead::staticMetaObject
	?slotupdateUri@ContentInfoDbUpdate@@QAEXV?$QMap@VQString@@V1@@@@Z @ 42 NONAME ; void ContentInfoDbUpdate::slotupdateUri(class QMap<class QString, class QString>)
	?trUtf8@ContentInfoDbUpdate@@SA?AVQString@@PBD0H@Z @ 43 NONAME ; class QString ContentInfoDbUpdate::trUtf8(char const *, char const *, int)
	?tr@ContentInfoDbUpdate@@SA?AVQString@@PBD0H@Z @ 44 NONAME ; class QString ContentInfoDbUpdate::tr(char const *, char const *, int)

