EXPORTS
	_ZN12CNSmlDSCrypt10DecryptedLERK7TDesC16 @ 1 NONAME
	_ZN12CNSmlDSCrypt10EncryptedLERK7TDesC16 @ 2 NONAME
	_ZN12CNSmlDSCryptC1Ev @ 3 NONAME
	_ZN12CNSmlDSCryptC2Ev @ 4 NONAME
	_ZN12CNSmlDSCryptD0Ev @ 5 NONAME
	_ZN12CNSmlDSCryptD1Ev @ 6 NONAME
	_ZN12CNSmlDSCryptD2Ev @ 7 NONAME
	_ZN14CNSmlDSProfile10SetHiddenLEi @ 8 NONAME
	_ZN14CNSmlDSProfile11SetIntValueE18TNSmlDSProfileDatai @ 9 NONAME
	_ZN14CNSmlDSProfile11SetStrValueE18TNSmlDSProfileDataRK7TDesC16 @ 10 NONAME
	_ZN14CNSmlDSProfile13SetVisibilityE18TNSmlDSProfileData22TNSmlDSFieldVisibility @ 11 NONAME
	_ZN14CNSmlDSProfile14LogReadStreamLEv @ 12 NONAME
	_ZN14CNSmlDSProfile15AddContentTypeLEiR7TDesC16S1_ @ 13 NONAME
	_ZN14CNSmlDSProfile15LogWriteStreamLEv @ 14 NONAME
	_ZN14CNSmlDSProfile18DeleteContentTypeLEi @ 15 NONAME
	_ZN14CNSmlDSProfile18WriteStreamCommitLEv @ 16 NONAME
	_ZN14CNSmlDSProfile5SaveLEv @ 17 NONAME
	_ZN14CNSmlDSProfile7HasLogLEv @ 18 NONAME
	_ZN14CNSmlDSProfile7IsNullLERK7TDesC16 @ 19 NONAME
	_ZN14CNSmlDSProfileD0Ev @ 20 NONAME
	_ZN14CNSmlDSProfileD1Ev @ 21 NONAME
	_ZN14CNSmlDSProfileD2Ev @ 22 NONAME
	_ZN14CNSmlRoamTable11GetItemIAPLEii @ 23 NONAME
	_ZN14CNSmlRoamTable14GetItemsForIdLEi @ 24 NONAME
	_ZN14CNSmlRoamTable14RemoveAllByIdLEi @ 25 NONAME
	_ZN14CNSmlRoamTable4NewLER16RDbNamedDatabase @ 26 NONAME
	_ZN14CNSmlRoamTable5NewLCER16RDbNamedDatabase @ 27 NONAME
	_ZN14CNSmlRoamTable9PutItemsLEiP13CArrayFixFlatImE @ 28 NONAME
	_ZN14CNSmlRoamTableD0Ev @ 29 NONAME
	_ZN14CNSmlRoamTableD1Ev @ 30 NONAME
	_ZN14CNSmlRoamTableD2Ev @ 31 NONAME
	_ZN15CNSmlDSSettings10ProfileIdLEi @ 32 NONAME
	_ZN15CNSmlDSSettings14CreateProfileLEi @ 33 NONAME
	_ZN15CNSmlDSSettings14CreateProfileLEv @ 34 NONAME
	_ZN15CNSmlDSSettings14DeleteProfileLEi @ 35 NONAME
	_ZN15CNSmlDSSettings15GetProfileListLEP13CArrayPtrFlatI22CNSmlDSProfileListItemE @ 36 NONAME
	_ZN15CNSmlDSSettings18GetAllProfileListLEP13CArrayPtrFlatI22CNSmlDSProfileListItemE @ 37 NONAME
	_ZN15CNSmlDSSettings21UpdateHiddenProfilesLEv @ 38 NONAME
	_ZN15CNSmlDSSettings4NewLEv @ 39 NONAME
	_ZN15CNSmlDSSettings5NewLCEv @ 40 NONAME
	_ZN15CNSmlDSSettings8DatabaseEv @ 41 NONAME
	_ZN15CNSmlDSSettings8ProfileLEi25TNSmlDSContentTypeGetMode @ 42 NONAME
	_ZN18CNSmlDSContentType10HasFilterLEv @ 43 NONAME
	_ZN18CNSmlDSContentType11SetIntValueE22TNSmlDSContentTypeDatai @ 44 NONAME
	_ZN18CNSmlDSContentType11SetStrValueE22TNSmlDSContentTypeDataRK7TDesC16 @ 45 NONAME
	_ZN18CNSmlDSContentType17FilterReadStreamLEv @ 46 NONAME
	_ZN18CNSmlDSContentType18FilterWriteStreamLEv @ 47 NONAME
	_ZN18CNSmlDSContentType18WriteStreamCommitLEv @ 48 NONAME
	_ZN22CNSmlDSProfileListItem4NewLEi @ 49 NONAME
	_ZN22CNSmlDSProfileListItem5NewLCEi @ 50 NONAME
	_ZN22CNSmlDSProfileListItem7AssignLEPKS_ @ 51 NONAME
	_ZNK14CNSmlDSProfile10VisibilityE18TNSmlDSProfileData @ 52 NONAME
	_ZNK14CNSmlDSProfile11ContentTypeEi @ 53 NONAME
	_ZNK14CNSmlDSProfile13ContentTypeIdEi @ 54 NONAME
	_ZNK14CNSmlDSProfile5IsNewEv @ 55 NONAME
	_ZNK14CNSmlDSProfile8IntValueE18TNSmlDSProfileData @ 56 NONAME
	_ZNK14CNSmlDSProfile8StrValueE18TNSmlDSProfileData @ 57 NONAME
	_ZNK18CNSmlDSContentType8IntValueE22TNSmlDSContentTypeData @ 58 NONAME
	_ZNK18CNSmlDSContentType8StrValueE22TNSmlDSContentTypeData @ 59 NONAME
	_ZNK22CNSmlDSProfileListItem8IntValueE18TNSmlDSProfileData @ 60 NONAME
	_ZTI12CNSmlDSCrypt @ 61 NONAME ; #<TI>#
	_ZTI13CNSmlRoamItem @ 62 NONAME ; #<TI>#
	_ZTI14CNSmlDSProfile @ 63 NONAME ; #<TI>#
	_ZTI14CNSmlRoamTable @ 64 NONAME ; #<TI>#
	_ZTI15CNSmlDSSettings @ 65 NONAME ; #<TI>#
	_ZTI18CNSmlDSContentType @ 66 NONAME ; #<TI>#
	_ZTI22CNSmlDSProfileListItem @ 67 NONAME ; #<TI>#
	_ZTI22CNSmlDSResourceProfile @ 68 NONAME ; #<TI>#
	_ZTI23CNSmlDSResourceProfiles @ 69 NONAME ; #<TI>#
	_ZTI25CNSmlDSContentSettingType @ 70 NONAME ; #<TI>#
	_ZTI26CNSmlDSResourceContentType @ 71 NONAME ; #<TI>#
	_ZTV12CNSmlDSCrypt @ 72 NONAME ; #<VT>#
	_ZTV13CNSmlRoamItem @ 73 NONAME ; #<VT>#
	_ZTV14CNSmlDSProfile @ 74 NONAME ; #<VT>#
	_ZTV14CNSmlRoamTable @ 75 NONAME ; #<VT>#
	_ZTV15CNSmlDSSettings @ 76 NONAME ; #<VT>#
	_ZTV18CNSmlDSContentType @ 77 NONAME ; #<VT>#
	_ZTV22CNSmlDSProfileListItem @ 78 NONAME ; #<VT>#
	_ZTV22CNSmlDSResourceProfile @ 79 NONAME ; #<VT>#
	_ZTV23CNSmlDSResourceProfiles @ 80 NONAME ; #<VT>#
	_ZTV25CNSmlDSContentSettingType @ 81 NONAME ; #<VT>#
	_ZTV26CNSmlDSResourceContentType @ 82 NONAME ; #<VT>#
	_ZTI26CNSmlProfileContentHandler @ 83 NONAME ; #<TI>#
	_ZTV26CNSmlProfileContentHandler @ 84 NONAME ; #<VT>#
	_ZN15CNSmlDSSettingsD0Ev @ 85 NONAME
	_ZN15CNSmlDSSettingsD1Ev @ 86 NONAME
	_ZN15CNSmlDSSettingsD2Ev @ 87 NONAME
	_ZN23CNSmlDSOperatorSettings16CustomManValueLCEv @ 88 NONAME
	_ZN23CNSmlDSOperatorSettings16CustomModValueLCEv @ 89 NONAME
	_ZN23CNSmlDSOperatorSettings16CustomSwvValueLCEv @ 90 NONAME
	_ZN23CNSmlDSOperatorSettings18IsOperatorProfileLERK7TDesC16 @ 91 NONAME
	_ZN23CNSmlDSOperatorSettings23PopulateStatusCodeListLER6RArrayIiE @ 92 NONAME
	_ZN23CNSmlDSOperatorSettings4NewLEv @ 93 NONAME
	_ZN23CNSmlDSOperatorSettings5NewLCEv @ 94 NONAME
	_ZN23CNSmlDSOperatorSettingsD0Ev @ 95 NONAME
	_ZN23CNSmlDSOperatorSettingsD1Ev @ 96 NONAME
	_ZN23CNSmlDSOperatorSettingsD2Ev @ 97 NONAME
	_ZTI23CNSmlDSOperatorSettings @ 98 NONAME
	_ZTV23CNSmlDSOperatorSettings @ 99 NONAME
	_ZN23CNSmlDSOperatorSettings25HttpErrorReportingEnabledEv @ 100 NONAME
	_ZN23CNSmlDSOperatorSettings25SyncErrorReportingEnabledEv @ 101 NONAME

