EXPORTS
	?lastErrorMessage@XQAiwRequest@@QBEABVQString@@XZ @ 1 NONAME ; class QString const & XQAiwRequest::lastErrorMessage(void) const
	?results@XQAiwRequest@@MBEABVQVariant@@XZ @ 2 NONAME ; class QVariant const & XQAiwRequest::results(void) const
	?trUtf8@XQServiceAdaptor@@SA?AVQString@@PBD0@Z @ 3 NONAME ; class QString XQServiceAdaptor::trUtf8(char const *, char const *)
	?connectLocalToRemote@XQServiceAdaptor@@AAE_NPAVQObject@@ABVQByteArray@@1@Z @ 4 NONAME ; bool XQServiceAdaptor::connectLocalToRemote(class QObject *, class QByteArray const &, class QByteArray const &)
	?cancelPendingSend@XQServiceChannel@@SA_NABVQString@@@Z @ 5 NONAME ; bool XQServiceChannel::cancelPendingSend(class QString const &)
	?list@XQApplicationManager@@QAE?AV?$QList@VXQAiwInterfaceDescriptor@@@@ABVQString@@0@Z @ 6 NONAME ; class QList<class XQAiwInterfaceDescriptor> XQApplicationManager::list(class QString const &, class QString const &)
	?serializeArguments@XQServiceRequest@@SA?AVQByteArray@@ABV1@@Z @ 7 NONAME ; class QByteArray XQServiceRequest::serializeArguments(class XQServiceRequest const &)
	?qt_metacast@XQApplicationManager@@UAEPAXPBD@Z @ 8 NONAME ; void * XQApplicationManager::qt_metacast(char const *)
	?latestError@XQServiceRequest@@QAEHXZ @ 9 NONAME ; int XQServiceRequest::latestError(void)
	?staticMetaObject@XQApplicationManager@@2UQMetaObject@@B @ 10 NONAME ; struct QMetaObject const XQApplicationManager::staticMetaObject
	?received@XQServiceChannel@@IAEXABVQString@@ABVQByteArray@@@Z @ 11 NONAME ABSENT ; void XQServiceChannel::received(class QString const &, class QByteArray const &)
	??_EXQServiceAdaptor@@UAE@I@Z @ 12 NONAME ; XQServiceAdaptor::~XQServiceAdaptor(unsigned int)
	?metaObject@XQApplicationManager@@UBEPBUQMetaObject@@XZ @ 13 NONAME ; struct QMetaObject const * XQApplicationManager::metaObject(void) const
	?qt_metacast@XQServiceProvider@@UAEPAXPBD@Z @ 14 NONAME ; void * XQServiceProvider::qt_metacast(char const *)
	?qt_metacall@XQServiceAdaptor@@UAEHW4Call@QMetaObject@@HPAPAX@Z @ 15 NONAME ; int XQServiceAdaptor::qt_metacall(enum QMetaObject::Call, int, void * *)
	?send@XQServiceRequest@@QAE_NXZ @ 16 NONAME ; bool XQServiceRequest::send(void)
	?returnValueDelivered@XQServiceAdaptor@@IAEXXZ @ 17 NONAME ; void XQServiceAdaptor::returnValueDelivered(void)
	?connectChannel@XQServiceChannel@@QAE_NXZ @ 18 NONAME ; bool XQServiceChannel::connectChannel(void)
	?lastError@XQAiwRequest@@QBEHXZ @ 19 NONAME ; int XQAiwRequest::lastError(void) const
	?tr@XQApplicationManager@@SA?AVQString@@PBD0H@Z @ 20 NONAME ; class QString XQApplicationManager::tr(char const *, char const *, int)
	?isConnected@XQServiceAdaptor@@QAE_NABVQByteArray@@@Z @ 21 NONAME ; bool XQServiceAdaptor::isConnected(class QByteArray const &)
	??0XQApplicationManager@@QAE@XZ @ 22 NONAME ; XQApplicationManager::XQApplicationManager(void)
	?getStaticMetaObject@XQServiceProvider@@SAABUQMetaObject@@XZ @ 23 NONAME ; struct QMetaObject const & XQServiceProvider::getStaticMetaObject(void)
	?channel@XQServiceAdaptor@@QBE?AVQString@@XZ @ 24 NONAME ; class QString XQServiceAdaptor::channel(void) const
	?send@XQServiceRequest@@QAE_NAAVQVariant@@@Z @ 25 NONAME ; bool XQServiceRequest::send(class QVariant &)
	?qt_metacast@XQServiceChannel@@UAEPAXPBD@Z @ 26 NONAME ; void * XQServiceChannel::qt_metacast(char const *)
	?message@XQServiceRequest@@QBE?AVQString@@XZ @ 27 NONAME ; class QString XQServiceRequest::message(void) const
	??0XQAiwRequest@@QAE@ABVXQAiwInterfaceDescriptor@@ABVQString@@_N@Z @ 28 NONAME ; XQAiwRequest::XQAiwRequest(class XQAiwInterfaceDescriptor const &, class QString const &, bool)
	?trUtf8@XQApplicationManager@@SA?AVQString@@PBD0H@Z @ 29 NONAME ; class QString XQApplicationManager::trUtf8(char const *, char const *, int)
	?publish@XQServiceAdaptor@@IAE_NABVQByteArray@@@Z @ 30 NONAME ; bool XQServiceAdaptor::publish(class QByteArray const &)
	?tr@XQServiceRequest@@SA?AVQString@@PBD0H@Z @ 31 NONAME ; class QString XQServiceRequest::tr(char const *, char const *, int)
	?tr@XQServiceChannel@@SA?AVQString@@PBD0H@Z @ 32 NONAME ; class QString XQServiceChannel::tr(char const *, char const *, int)
	?qt_metacall@XQServiceRequest@@UAEHW4Call@QMetaObject@@HPAPAX@Z @ 33 NONAME ; int XQServiceRequest::qt_metacall(enum QMetaObject::Call, int, void * *)
	?trUtf8@XQServiceProvider@@SA?AVQString@@PBD0H@Z @ 34 NONAME ; class QString XQServiceProvider::trUtf8(char const *, char const *, int)
	??0XQServiceProvider@@QAE@ABVQString@@PAVQObject@@@Z @ 35 NONAME ; XQServiceProvider::XQServiceProvider(class QString const &, class QObject *)
	?trUtf8@XQServiceRequest@@SA?AVQString@@PBD0@Z @ 36 NONAME ; class QString XQServiceRequest::trUtf8(char const *, char const *)
	?requestCompleted@XQServiceRequest@@IAEXABVQVariant@@@Z @ 37 NONAME ; void XQServiceRequest::requestCompleted(class QVariant const &)
	?cancelPendingSend@XQServiceAdaptor@@SA_NABVQString@@@Z @ 38 NONAME ; bool XQServiceAdaptor::cancelPendingSend(class QString const &)
	?qt_metacall@XQServiceProvider@@UAEHW4Call@QMetaObject@@HPAPAX@Z @ 39 NONAME ; int XQServiceProvider::qt_metacall(enum QMetaObject::Call, int, void * *)
	?metaObject@XQServiceRequest@@UBEPBUQMetaObject@@XZ @ 40 NONAME ; struct QMetaObject const * XQServiceRequest::metaObject(void) const
	?metaObject@XQServiceChannel@@UBEPBUQMetaObject@@XZ @ 41 NONAME ; struct QMetaObject const * XQServiceChannel::metaObject(void) const
	??0XQServiceRequest@@QAE@XZ @ 42 NONAME ; XQServiceRequest::XQServiceRequest(void)
	?tr@XQServiceChannel@@SA?AVQString@@PBD0@Z @ 43 NONAME ; class QString XQServiceChannel::tr(char const *, char const *)
	?qt_metacast@XQServiceRequest@@UAEPAXPBD@Z @ 44 NONAME ; void * XQServiceRequest::qt_metacast(char const *)
	?getStaticMetaObject@XQServiceChannel@@SAABUQMetaObject@@XZ @ 45 NONAME ; struct QMetaObject const & XQServiceChannel::getStaticMetaObject(void)
	?receiverDestroyed@XQServiceAdaptor@@AAEXXZ @ 46 NONAME ; void XQServiceAdaptor::receiverDestroyed(void)
	?requestError@XQAiwRequest@@IAEXHABVQString@@@Z @ 47 NONAME ; void XQAiwRequest::requestError(int, class QString const &)
	?send@XQServiceAdaptor@@QAE_NABVQByteArray@@ABV?$QList@VQVariant@@@@AAVQVariant@@@Z @ 48 NONAME ; bool XQServiceAdaptor::send(class QByteArray const &, class QList<class QVariant> const &, class QVariant &)
	?staticMetaObject@XQServiceChannel@@2UQMetaObject@@B @ 49 NONAME ; struct QMetaObject const XQServiceChannel::staticMetaObject
	?sendExecute@XQAiwRequest@@MAE_NXZ @ 50 NONAME ; bool XQAiwRequest::sendExecute(void)
	?trUtf8@XQApplicationManager@@SA?AVQString@@PBD0@Z @ 51 NONAME ; class QString XQApplicationManager::trUtf8(char const *, char const *)
	?tr@XQApplicationManager@@SA?AVQString@@PBD0@Z @ 52 NONAME ; class QString XQApplicationManager::tr(char const *, char const *)
	?latestError@XQServiceChannel@@SAHXZ @ 53 NONAME ; int XQServiceChannel::latestError(void)
	?trUtf8@XQServiceRequest@@SA?AVQString@@PBD0H@Z @ 54 NONAME ; class QString XQServiceRequest::trUtf8(char const *, char const *, int)
	?setCurrentRequestAsync@XQServiceAdaptor@@QAEHXZ @ 55 NONAME ; int XQServiceAdaptor::setCurrentRequestAsync(void)
	??4XQServiceRequest@@QAEAAV0@ABV0@@Z @ 56 NONAME ; class XQServiceRequest & XQServiceRequest::operator=(class XQServiceRequest const &)
	?trUtf8@XQServiceChannel@@SA?AVQString@@PBD0H@Z @ 57 NONAME ; class QString XQServiceChannel::trUtf8(char const *, char const *, int)
	?commandReceive@XQServiceChannel@@UAEXW4XQServiceCommand@1@@Z @ 58 NONAME ; void XQServiceChannel::commandReceive(enum XQServiceChannel::XQServiceCommand)
	?setCurrentRequestAsync@XQServiceProvider@@IAEHXZ @ 59 NONAME ; int XQServiceProvider::setCurrentRequestAsync(void)
	?tr@XQServiceAdaptor@@SA?AVQString@@PBD0@Z @ 60 NONAME ; class QString XQServiceAdaptor::tr(char const *, char const *)
	??_EXQServiceChannel@@UAE@I@Z @ 61 NONAME ; XQServiceChannel::~XQServiceChannel(unsigned int)
	?getStaticMetaObject@XQServiceAdaptor@@SAABUQMetaObject@@XZ @ 62 NONAME ; struct QMetaObject const & XQServiceAdaptor::getStaticMetaObject(void)
	?send@XQServiceAdaptor@@QAE_NABVQByteArray@@ABVQVariant@@11AAV3@@Z @ 63 NONAME ; bool XQServiceAdaptor::send(class QByteArray const &, class QVariant const &, class QVariant const &, class QVariant const &, class QVariant &)
	?setService@XQServiceRequest@@QAEXABVQString@@@Z @ 64 NONAME ; void XQServiceRequest::setService(class QString const &)
	??0XQServiceAdaptor@@QAE@ABVQString@@PAVQObject@@@Z @ 65 NONAME ; XQServiceAdaptor::XQServiceAdaptor(class QString const &, class QObject *)
	?createAction@XQAiwRequest@@QAEPAVQAction@@XZ @ 66 NONAME ; class QAction * XQAiwRequest::createAction(void)
	??0XQServiceRequest@@QAE@ABV0@@Z @ 67 NONAME ; XQServiceRequest::XQServiceRequest(class XQServiceRequest const &)
	?returnValueDelivered@XQServiceProvider@@IAEXXZ @ 68 NONAME ; void XQServiceProvider::returnValueDelivered(void)
	?tr@XQAiwRequest@@SA?AVQString@@PBD0@Z @ 69 NONAME ; class QString XQAiwRequest::tr(char const *, char const *)
	?qt_metacast@XQAiwRequest@@UAEPAXPBD@Z @ 70 NONAME ; void * XQAiwRequest::qt_metacast(char const *)
	??0XQServiceChannel@@QAE@ABVQString@@_NPAVQObject@@@Z @ 71 NONAME ; XQServiceChannel::XQServiceChannel(class QString const &, bool, class QObject *)
	?setSynchronous@XQServiceRequest@@QAEXAB_N@Z @ 72 NONAME ; void XQServiceRequest::setSynchronous(bool const &)
	?qt_metacall@XQApplicationManager@@UAEHW4Call@QMetaObject@@HPAPAX@Z @ 73 NONAME ; int XQApplicationManager::qt_metacall(enum QMetaObject::Call, int, void * *)
	?handleAsyncResponse@XQAiwRequest@@AAEXABVQVariant@@@Z @ 74 NONAME ; void XQAiwRequest::handleAsyncResponse(class QVariant const &)
	??1XQServiceRequest@@UAE@XZ @ 75 NONAME ; XQServiceRequest::~XQServiceRequest(void)
	?receive@XQServiceChannel@@UAE?AVQVariant@@ABVQString@@ABVQByteArray@@@Z @ 76 NONAME ABSENT ; class QVariant XQServiceChannel::receive(class QString const &, class QByteArray const &)
	?connectRemoteToLocal@XQServiceAdaptor@@AAE_NABVQByteArray@@PAVQObject@@0@Z @ 77 NONAME ; bool XQServiceAdaptor::connectRemoteToLocal(class QByteArray const &, class QObject *, class QByteArray const &)
	?triggered@XQAiwRequest@@IAEXXZ @ 78 NONAME ; void XQAiwRequest::triggered(void)
	?tr@XQAiwRequest@@SA?AVQString@@PBD0H@Z @ 79 NONAME ; class QString XQAiwRequest::tr(char const *, char const *, int)
	?channel@XQServiceChannel@@QBE?AVQString@@XZ @ 80 NONAME ; class QString XQServiceChannel::channel(void) const
	?send@XQServiceAdaptor@@QAE_NABVQByteArray@@ABVQVariant@@AAV3@@Z @ 81 NONAME ; bool XQServiceAdaptor::send(class QByteArray const &, class QVariant const &, class QVariant &)
	?descriptor@XQAiwRequest@@QBEABVXQAiwInterfaceDescriptor@@XZ @ 82 NONAME ; class XQAiwInterfaceDescriptor const & XQAiwRequest::descriptor(void) const
	?send@XQServiceChannel@@SA_NABVQString@@0ABVQByteArray@@AAVQVariant@@_NPAVXQServiceRequestCompletedAsync@@@Z @ 83 NONAME ; bool XQServiceChannel::send(class QString const &, class QString const &, class QByteArray const &, class QVariant &, bool, class XQServiceRequestCompletedAsync *)
	?addArg@XQServiceRequest@@AAEXABVQVariant@@@Z @ 84 NONAME ; void XQServiceRequest::addArg(class QVariant const &)
	?setMessage@XQServiceRequest@@QAEXABVQString@@@Z @ 85 NONAME ; void XQServiceRequest::setMessage(class QString const &)
	??1XQAiwRequest@@UAE@XZ @ 86 NONAME ; XQAiwRequest::~XQAiwRequest(void)
	?qt_metacall@XQAiwRequest@@UAEHW4Call@QMetaObject@@HPAPAX@Z @ 87 NONAME ; int XQAiwRequest::qt_metacall(enum QMetaObject::Call, int, void * *)
	?arguments@XQServiceRequest@@QBEABV?$QList@VQVariant@@@@XZ @ 88 NONAME ; class QList<class QVariant> const & XQServiceRequest::arguments(void) const
	?tr@XQServiceRequest@@SA?AVQString@@PBD0@Z @ 89 NONAME ; class QString XQServiceRequest::tr(char const *, char const *)
	?getStaticMetaObject@XQServiceRequest@@SAABUQMetaObject@@XZ @ 90 NONAME ; struct QMetaObject const & XQServiceRequest::getStaticMetaObject(void)
	?SetPlugin@XQServiceProvider@@QAEXPAVQObject@@@Z @ 91 NONAME ; void XQServiceProvider::SetPlugin(class QObject *)
	??1XQServiceProvider@@UAE@XZ @ 92 NONAME ; XQServiceProvider::~XQServiceProvider(void)
	??1XQApplicationManager@@UAE@XZ @ 93 NONAME ; XQApplicationManager::~XQApplicationManager(void)
	?commandReceived@XQServiceChannel@@IAEXW4XQServiceCommand@1@@Z @ 94 NONAME ; void XQServiceChannel::commandReceived(enum XQServiceChannel::XQServiceCommand)
	?create@XQApplicationManager@@QAEPAVXQAiwRequest@@ABVQString@@0_N@Z @ 95 NONAME ; class XQAiwRequest * XQApplicationManager::create(class QString const &, class QString const &, bool)
	?tr@XQServiceAdaptor@@SA?AVQString@@PBD0H@Z @ 96 NONAME ; class QString XQServiceAdaptor::tr(char const *, char const *, int)
	?qt_metacast@XQServiceAdaptor@@UAEPAXPBD@Z @ 97 NONAME ; void * XQServiceAdaptor::qt_metacast(char const *)
	?tr@XQServiceProvider@@SA?AVQString@@PBD0H@Z @ 98 NONAME ; class QString XQServiceProvider::tr(char const *, char const *, int)
	?qt_metacall@XQServiceChannel@@UAEHW4Call@QMetaObject@@HPAPAX@Z @ 99 NONAME ; int XQServiceChannel::qt_metacall(enum QMetaObject::Call, int, void * *)
	?latestError@XQServiceAdaptor@@SAHXZ @ 100 NONAME ; int XQServiceAdaptor::latestError(void)
	??1XQServiceAdaptor@@UAE@XZ @ 101 NONAME ; XQServiceAdaptor::~XQServiceAdaptor(void)
	?staticMetaObject@XQServiceAdaptor@@2UQMetaObject@@B @ 102 NONAME ; struct QMetaObject const XQServiceAdaptor::staticMetaObject
	?metaObject@XQAiwRequest@@UBEPBUQMetaObject@@XZ @ 103 NONAME ; struct QMetaObject const * XQAiwRequest::metaObject(void) const
	?metaObject@XQServiceAdaptor@@UBEPBUQMetaObject@@XZ @ 104 NONAME ; struct QMetaObject const * XQServiceAdaptor::metaObject(void) const
	?setArguments@XQServiceRequest@@QAEXABV?$QList@VQVariant@@@@@Z @ 105 NONAME ; void XQServiceRequest::setArguments(class QList<class QVariant> const &)
	??6XQServiceRequest@@QAEAAV0@PBD@Z @ 106 NONAME ; class XQServiceRequest & XQServiceRequest::operator<<(char const *)
	??_EXQServiceProvider@@UAE@I@Z @ 107 NONAME ; XQServiceProvider::~XQServiceProvider(unsigned int)
	?send@XQAiwRequest@@QAE_NXZ @ 108 NONAME ; bool XQAiwRequest::send(void)
	??_EXQAiwRequest@@UAE@I@Z @ 109 NONAME ; XQAiwRequest::~XQAiwRequest(unsigned int)
	?trUtf8@XQAiwRequest@@SA?AVQString@@PBD0@Z @ 110 NONAME ; class QString XQAiwRequest::trUtf8(char const *, char const *)
	?sendMessage@XQServiceAdaptor@@AAE_NABVQString@@ABV?$QList@VQVariant@@@@AAVQVariant@@@Z @ 111 NONAME ; bool XQServiceAdaptor::sendMessage(class QString const &, class QList<class QVariant> const &, class QVariant &)
	??_EXQServiceRequest@@UAE@I@Z @ 112 NONAME ; XQServiceRequest::~XQServiceRequest(unsigned int)
	?sendCommand@XQServiceChannel@@SAXABVQString@@W4XQServiceCommand@1@@Z @ 113 NONAME ; void XQServiceChannel::sendCommand(class QString const &, enum XQServiceChannel::XQServiceCommand)
	?memberToMessage@XQServiceAdaptor@@MAE?AVQString@@ABVQByteArray@@@Z @ 114 NONAME ; class QString XQServiceAdaptor::memberToMessage(class QByteArray const &)
	?tr@XQServiceProvider@@SA?AVQString@@PBD0@Z @ 115 NONAME ; class QString XQServiceProvider::tr(char const *, char const *)
	?requestError@XQServiceRequest@@IAEXH@Z @ 116 NONAME ; void XQServiceRequest::requestError(int)
	?sendFromAction@XQAiwRequest@@AAEX_N@Z @ 117 NONAME ; void XQAiwRequest::sendFromAction(bool)
	?trUtf8@XQServiceAdaptor@@SA?AVQString@@PBD0H@Z @ 118 NONAME ; class QString XQServiceAdaptor::trUtf8(char const *, char const *, int)
	?trUtf8@XQAiwRequest@@SA?AVQString@@PBD0H@Z @ 119 NONAME ; class QString XQAiwRequest::trUtf8(char const *, char const *, int)
	??1XQServiceChannel@@UAE@XZ @ 120 NONAME ; XQServiceChannel::~XQServiceChannel(void)
	?isNull@XQServiceRequest@@QBE_NXZ @ 121 NONAME ; bool XQServiceRequest::isNull(void) const
	?publishAll@XQServiceProvider@@IAEXXZ @ 122 NONAME ; void XQServiceProvider::publishAll(void)
	?staticMetaObject@XQServiceProvider@@2UQMetaObject@@B @ 123 NONAME ; struct QMetaObject const XQServiceProvider::staticMetaObject
	?requestOk@XQAiwRequest@@IAEXABVQVariant@@@Z @ 124 NONAME ; void XQAiwRequest::requestOk(class QVariant const &)
	?getStaticMetaObject@XQApplicationManager@@SAABUQMetaObject@@XZ @ 125 NONAME ; struct QMetaObject const & XQApplicationManager::getStaticMetaObject(void)
	?sendLocally@XQServiceChannel@@SA?AVQVariant@@ABVQString@@0ABVQByteArray@@@Z @ 126 NONAME ABSENT ; class QVariant XQServiceChannel::sendLocally(class QString const &, class QString const &, class QByteArray const &)
	?completeRequest@XQServiceProvider@@IAE_NHABVQVariant@@@Z @ 127 NONAME ; bool XQServiceProvider::completeRequest(int, class QVariant const &)
	?service@XQServiceRequest@@QBE?AVQString@@XZ @ 128 NONAME ; class QString XQServiceRequest::service(void) const
	?deserializeArguments@XQServiceRequest@@SAXAAV1@ABVQByteArray@@@Z @ 129 NONAME ; void XQServiceRequest::deserializeArguments(class XQServiceRequest &, class QByteArray const &)
	?create@XQApplicationManager@@QAEPAVXQAiwRequest@@ABVXQAiwInterfaceDescriptor@@ABVQString@@_N@Z @ 130 NONAME ; class XQAiwRequest * XQApplicationManager::create(class XQAiwInterfaceDescriptor const &, class QString const &, bool)
	?send@XQServiceAdaptor@@SA_NABVQString@@0ABV?$QList@VQVariant@@@@AAVQVariant@@_NPAVXQServiceRequestCompletedAsync@@@Z @ 131 NONAME ; bool XQServiceAdaptor::send(class QString const &, class QString const &, class QList<class QVariant> const &, class QVariant &, bool, class XQServiceRequestCompletedAsync *)
	??_EXQApplicationManager@@UAE@I@Z @ 132 NONAME ; XQApplicationManager::~XQApplicationManager(unsigned int)
	?staticMetaObject@XQServiceRequest@@2UQMetaObject@@B @ 133 NONAME ; struct QMetaObject const XQServiceRequest::staticMetaObject
	?publishAll@XQServiceAdaptor@@IAEXW4PublishType@1@@Z @ 134 NONAME ; void XQServiceAdaptor::publishAll(enum XQServiceAdaptor::PublishType)
	?metaObject@XQServiceProvider@@UBEPBUQMetaObject@@XZ @ 135 NONAME ; struct QMetaObject const * XQServiceProvider::metaObject(void) const
	?publishAll@XQServiceAdaptor@@AAEXPAVQObject@@HW4PublishType@1@@Z @ 136 NONAME ; void XQServiceAdaptor::publishAll(class QObject *, int, enum XQServiceAdaptor::PublishType)
	?trUtf8@XQServiceChannel@@SA?AVQString@@PBD0@Z @ 137 NONAME ; class QString XQServiceChannel::trUtf8(char const *, char const *)
	?getStaticMetaObject@XQAiwRequest@@SAABUQMetaObject@@XZ @ 138 NONAME ; struct QMetaObject const & XQAiwRequest::getStaticMetaObject(void)
	?trUtf8@XQServiceProvider@@SA?AVQString@@PBD0@Z @ 139 NONAME ; class QString XQServiceProvider::trUtf8(char const *, char const *)
	?connect@XQServiceAdaptor@@SA_NPAVQObject@@ABVQByteArray@@01@Z @ 140 NONAME ; bool XQServiceAdaptor::connect(class QObject *, class QByteArray const &, class QObject *, class QByteArray const &)
	?addVariantArg@XQServiceRequest@@QAEXABVQVariant@@@Z @ 141 NONAME ; void XQServiceRequest::addVariantArg(class QVariant const &)
	??0XQServiceRequest@@QAE@ABVQString@@0AB_N@Z @ 142 NONAME ; XQServiceRequest::XQServiceRequest(class QString const &, class QString const &, bool const &)
	?isSynchronous@XQServiceRequest@@QBE_NXZ @ 143 NONAME ; bool XQServiceRequest::isSynchronous(void) const
	?received@XQServiceAdaptor@@AAE?AVQVariant@@ABVQString@@ABVQByteArray@@@Z @ 144 NONAME ABSENT ; class QVariant XQServiceAdaptor::received(class QString const &, class QByteArray const &)
	?send@XQServiceAdaptor@@QAE_NABVQByteArray@@ABVQVariant@@1AAV3@@Z @ 145 NONAME ; bool XQServiceAdaptor::send(class QByteArray const &, class QVariant const &, class QVariant const &, class QVariant &)
	?setArguments@XQAiwRequest@@QAEXABV?$QList@VQVariant@@@@@Z @ 146 NONAME ; void XQAiwRequest::setArguments(class QList<class QVariant> const &)
	?staticMetaObject@XQAiwRequest@@2UQMetaObject@@B @ 147 NONAME ; struct QMetaObject const XQAiwRequest::staticMetaObject
	?completeRequest@XQServiceAdaptor@@QAE_NHABVQVariant@@@Z @ 148 NONAME ; bool XQServiceAdaptor::completeRequest(int, class QVariant const &)
	?handleAsyncError@XQAiwRequest@@AAEXH@Z @ 149 NONAME ; void XQAiwRequest::handleAsyncError(int)
	?create@XQApplicationManager@@QAEPAVXQAiwRequest@@ABVQString@@00_N@Z @ 150 NONAME ; class XQAiwRequest * XQApplicationManager::create(class QString const &, class QString const &, class QString const &, bool)
	?send@XQServiceAdaptor@@SA_NABVQString@@0ABV?$QList@VQVariant@@@@AAVQVariant@@_NPAVXQServiceRequestCompletedAsync@@PBX@Z @ 151 NONAME ; bool XQServiceAdaptor::send(class QString const &, class QString const &, class QList<class QVariant> const &, class QVariant &, bool, class XQServiceRequestCompletedAsync *, void const *)
	?clientDisconnected@XQServiceAdaptor@@IAEXXZ @ 152 NONAME ; void XQServiceAdaptor::clientDisconnected(void)
	?setEmbedded@XQAiwRequest@@QAEX_N@Z @ 153 NONAME ; void XQAiwRequest::setEmbedded(bool)
	?clientDisconnected@XQServiceProvider@@IAEXXZ @ 154 NONAME ; void XQServiceProvider::clientDisconnected(void)
	?create@XQApplicationManager@@QAEPAVXQAiwRequest@@ABVQUrl@@_N@Z @ 155 NONAME ; class XQAiwRequest * XQApplicationManager::create(class QUrl const &, bool)
	?list@XQApplicationManager@@QAE?AV?$QList@VXQAiwInterfaceDescriptor@@@@ABVQString@@00@Z @ 156 NONAME ; class QList<class XQAiwInterfaceDescriptor> XQApplicationManager::list(class QString const &, class QString const &, class QString const &)
	??0XQServiceRequest@@QAE@ABVXQAiwInterfaceDescriptor@@ABVQString@@AB_N@Z @ 157 NONAME ; XQServiceRequest::XQServiceRequest(class XQAiwInterfaceDescriptor const &, class QString const &, bool const &)
	?create@XQApplicationManager@@QAEPAVXQAiwRequest@@ABVQFile@@ABVXQAiwInterfaceDescriptor@@_N@Z @ 158 NONAME ; class XQAiwRequest * XQApplicationManager::create(class QFile const &, class XQAiwInterfaceDescriptor const &, bool)
	?send@XQServiceChannel@@SA_NABVQString@@0ABVQByteArray@@AAVQVariant@@_NPAVXQServiceRequestCompletedAsync@@PBX@Z @ 159 NONAME ; bool XQServiceChannel::send(class QString const &, class QString const &, class QByteArray const &, class QVariant &, bool, class XQServiceRequestCompletedAsync *, void const *)
	?send@XQAiwRequest@@QAE_NAAVQVariant@@@Z @ 160 NONAME ; bool XQAiwRequest::send(class QVariant &)
	?list@XQApplicationManager@@QAE?AV?$QList@VXQAiwInterfaceDescriptor@@@@ABVQFile@@@Z @ 161 NONAME ; class QList<class XQAiwInterfaceDescriptor> XQApplicationManager::list(class QFile const &)
	?setOperation@XQAiwRequest@@QAEXABVQString@@@Z @ 162 NONAME ; void XQAiwRequest::setOperation(class QString const &)
	??0XQAiwRequest@@QAE@ABVQUrl@@ABVXQAiwInterfaceDescriptor@@ABVQString@@@Z @ 163 NONAME ; XQAiwRequest::XQAiwRequest(class QUrl const &, class XQAiwInterfaceDescriptor const &, class QString const &)
	??0XQAiwRequest@@QAE@ABVQFile@@ABVXQAiwInterfaceDescriptor@@ABVQString@@@Z @ 164 NONAME ; XQAiwRequest::XQAiwRequest(class QFile const &, class XQAiwInterfaceDescriptor const &, class QString const &)
	?create@XQApplicationManager@@QAEPAVXQAiwRequest@@ABVQFile@@_N@Z @ 165 NONAME ; class XQAiwRequest * XQApplicationManager::create(class QFile const &, bool)
	?isEmbedded@XQAiwRequest@@QBE_NXZ @ 166 NONAME ; bool XQAiwRequest::isEmbedded(void) const
	?list@XQApplicationManager@@QAE?AV?$QList@VXQAiwInterfaceDescriptor@@@@ABVQUrl@@@Z @ 167 NONAME ; class QList<class XQAiwInterfaceDescriptor> XQApplicationManager::list(class QUrl const &)
	?create@XQApplicationManager@@QAEPAVXQAiwRequest@@ABVQUrl@@ABVXQAiwInterfaceDescriptor@@_N@Z @ 168 NONAME ; class XQAiwRequest * XQApplicationManager::create(class QUrl const &, class XQAiwInterfaceDescriptor const &, bool)
	?operation@XQAiwRequest@@QBEABVQString@@XZ @ 169 NONAME ; class QString const & XQAiwRequest::operation(void) const
	?received@XQServiceChannel@@IAEXABVQString@@ABVQByteArray@@ABVXQSharableFile@@@Z @ 170 NONAME ; void XQServiceChannel::received(class QString const &, class QByteArray const &, class XQSharableFile const &)
	?receive@XQServiceChannel@@UAE?AVQVariant@@ABVQString@@ABVQByteArray@@ABVXQSharableFile@@@Z @ 171 NONAME ; class QVariant XQServiceChannel::receive(class QString const &, class QByteArray const &, class XQSharableFile const &)
	?setBackground@XQAiwRequest@@QAEX_N@Z @ 172 NONAME ; void XQAiwRequest::setBackground(bool)
	?info@XQServiceRequest@@QBE?AVXQRequestInfo@@XZ @ 173 NONAME ; class XQRequestInfo XQServiceRequest::info(void) const
	?info@XQAiwRequest@@QBE?AVXQRequestInfo@@XZ @ 174 NONAME ; class XQRequestInfo XQAiwRequest::info(void) const
	?setSynchronous@XQAiwRequest@@QAEX_N@Z @ 175 NONAME ; void XQAiwRequest::setSynchronous(bool)
	?handleSharableFileArgs@XQServiceRequest@@AAE_NXZ @ 176 NONAME ; bool XQServiceRequest::handleSharableFileArgs(void)
	?requestInfo@XQServiceProvider@@IBE?AVXQRequestInfo@@XZ @ 177 NONAME ; class XQRequestInfo XQServiceProvider::requestInfo(void) const
	?requestInfo@XQServiceAdaptor@@QBE?AVXQRequestInfo@@XZ @ 178 NONAME ; class XQRequestInfo XQServiceAdaptor::requestInfo(void) const
	?sendLocally@XQServiceChannel@@SA?AVQVariant@@ABVQString@@0ABVQByteArray@@ABVXQSharableFile@@@Z @ 179 NONAME ; class QVariant XQServiceChannel::sendLocally(class QString const &, class QString const &, class QByteArray const &, class XQSharableFile const &)
	?isBackground@XQAiwRequest@@QBE_NXZ @ 180 NONAME ; bool XQAiwRequest::isBackground(void) const
	?setInfo@XQAiwRequest@@QAEXABVXQRequestInfo@@@Z @ 181 NONAME ; void XQAiwRequest::setInfo(class XQRequestInfo const &)
	?received@XQServiceAdaptor@@AAE?AVQVariant@@ABVQString@@ABVQByteArray@@ABVXQSharableFile@@@Z @ 182 NONAME ; class QVariant XQServiceAdaptor::received(class QString const &, class QByteArray const &, class XQSharableFile const &)
	?isSynchronous@XQAiwRequest@@QBE_NXZ @ 183 NONAME ; bool XQAiwRequest::isSynchronous(void) const
	?setInfo@XQServiceRequest@@QAEXABVXQRequestInfo@@@Z @ 184 NONAME ; void XQServiceRequest::setInfo(class XQRequestInfo const &)
	?lastError@XQApplicationManager@@QBEHXZ @ 185 NONAME ; int XQApplicationManager::lastError(void) const
	?create@XQApplicationManager@@QAEPAVXQAiwRequest@@ABVXQSharableFile@@ABVXQAiwInterfaceDescriptor@@_N@Z @ 186 NONAME ; class XQAiwRequest * XQApplicationManager::create(class XQSharableFile const &, class XQAiwInterfaceDescriptor const &, bool)
	?list@XQApplicationManager@@QAE?AV?$QList@VXQAiwInterfaceDescriptor@@@@ABVXQSharableFile@@@Z @ 187 NONAME ; class QList<class XQAiwInterfaceDescriptor> XQApplicationManager::list(class XQSharableFile const &)
	?create@XQApplicationManager@@QAEPAVXQAiwRequest@@ABVXQSharableFile@@_N@Z @ 188 NONAME ; class XQAiwRequest * XQApplicationManager::create(class XQSharableFile const &, bool)
	??0XQAiwRequest@@QAE@ABVXQSharableFile@@ABVXQAiwInterfaceDescriptor@@ABVQString@@@Z @ 189 NONAME ; XQAiwRequest::XQAiwRequest(class XQSharableFile const &, class XQAiwInterfaceDescriptor const &, class QString const &)
	?isRunning@XQApplicationManager@@QBE_NABVXQAiwInterfaceDescriptor@@@Z @ 190 NONAME ; bool XQApplicationManager::isRunning(class XQAiwInterfaceDescriptor const &) const
	?getDrmAttributes@XQApplicationManager@@QAE_NABVXQSharableFile@@ABV?$QList@H@@AAV?$QList@VQVariant@@@@@Z @ 191 NONAME ; bool XQApplicationManager::getDrmAttributes(class XQSharableFile const &, class QList<int> const &, class QList<class QVariant> &)
	?getDrmAttributes@XQApplicationManager@@QAE_NABVQFile@@ABV?$QList@H@@AAV?$QList@VQVariant@@@@@Z @ 192 NONAME ; bool XQApplicationManager::getDrmAttributes(class QFile const &, class QList<int> const &, class QList<class QVariant> &)
	?status@XQApplicationManager@@QAE?AW4ServiceStatus@1@ABVXQAiwInterfaceDescriptor@@@Z @ 193 NONAME ; enum XQApplicationManager::ServiceStatus XQApplicationManager::status(class XQAiwInterfaceDescriptor const &)
	?serviceStarted@XQApplicationManager@@IAEXVXQAiwInterfaceDescriptor@@@Z @ 194 NONAME ; void XQApplicationManager::serviceStarted(class XQAiwInterfaceDescriptor)
	?notifyRunning@XQApplicationManager@@QAE_NAAVXQAiwInterfaceDescriptor@@@Z @ 195 NONAME ; bool XQApplicationManager::notifyRunning(class XQAiwInterfaceDescriptor &)
	?cancelNotifyRunning@XQApplicationManager@@QAE_NAAVXQAiwInterfaceDescriptor@@@Z @ 196 NONAME ; bool XQApplicationManager::cancelNotifyRunning(class XQAiwInterfaceDescriptor &)
	?serviceStopped@XQApplicationManager@@IAEXVXQAiwInterfaceDescriptor@@@Z @ 197 NONAME ; void XQApplicationManager::serviceStopped(class XQAiwInterfaceDescriptor)

