EXPORTS
	_ZN10CTrustInfo4NewLEv @ 1 NONAME
	_ZN10CTrustInfo5NewLCEv @ 2 NONAME
	_ZN10CTrustInfoD0Ev @ 3 NONAME
	_ZN10CTrustInfoD1Ev @ 4 NONAME
	_ZN10CTrustInfoD2Ev @ 5 NONAME
	_ZN13CRTSecManager11UnSetPolicyEi @ 6 NONAME
	_ZN13CRTSecManager12UpdatePolicyEiRK5RFile @ 7 NONAME
	_ZN13CRTSecManager12UpdatePolicyEiRK6TDesC8 @ 8 NONAME
	_ZN13CRTSecManager14RegisterScriptEiRK10CTrustInfo @ 9 NONAME
	_ZN13CRTSecManager14RegisterScriptEiRK7TDesC16RK10CTrustInfo @ 10 NONAME
	_ZN13CRTSecManager16UnRegisterScriptEii @ 11 NONAME
	_ZN13CRTSecManager17GetScriptSessionLEiRK10CTrustInfoP20MSecMgrPromptHandler @ 12 NONAME
	_ZN13CRTSecManager17GetScriptSessionLEiiP20MSecMgrPromptHandlerRK7TDesC16 @ 13 NONAME
	_ZN13CRTSecManager4NewLEv @ 14 NONAME
	_ZN13CRTSecManager5NewLCEv @ 15 NONAME
	_ZN13CRTSecManager9SetPolicyERK5RFile @ 16 NONAME
	_ZN13CRTSecManager9SetPolicyERK6TDesC8 @ 17 NONAME
	_ZN13CRTSecManagerD0Ev @ 18 NONAME
	_ZN13CRTSecManagerD1Ev @ 19 NONAME
	_ZN13CRTSecManagerD2Ev @ 20 NONAME
	_ZN22CRTSecMgrScriptSession9IsAllowedERK6RArrayI11TCapabilityE @ 21 NONAME
	_ZN22CRTSecMgrScriptSession9IsAllowedERK6RArrayI11TCapabilityERS2_ @ 22 NONAME
	_ZN22CRTSecMgrScriptSessionD0Ev @ 23 NONAME
	_ZN22CRTSecMgrScriptSessionD1Ev @ 24 NONAME
	_ZN22CRTSecMgrScriptSessionD2Ev @ 25 NONAME
	_ZN22CRTSecMgrScriptSession19SetApplicationNameLERK7TDesC16 @ 26 NONAME
	_ZN22CRTSecMgrScriptSession9IsAllowedERK6RArrayI11TCapabilityE4TUid4TBufILi256EE @ 27 NONAME

