EXPORTS
	_ZN10CDpsEngine10GetEngineLEv @ 1 NONAME
	_ZN10CDpsEngine12SetPrintModeER14TRequestStatus @ 2 NONAME
	_ZN10CDpsEngine13DoDpsRequestLEP14TMDpsOperationR14TRequestStatus @ 3 NONAME
	_ZN10CDpsEngine13GetDpsConfigLER18TDpsConfigPrintReq @ 4 NONAME
	_ZN10CDpsEngine14DpsEventNotifyER10TDpsEventsR14TRequestStatus @ 5 NONAME
	_ZN10CDpsEngine15CancelPrintModeEv @ 6 NONAME
	_ZN10CDpsEngine16CancelDpsRequestEv @ 7 NONAME
	_ZN10CDpsEngine18ConnectStateNotifyER14TRequestStatus @ 8 NONAME
	_ZN10CDpsEngine20CancelDpsEventNotifyEv @ 9 NONAME
	_ZN10CDpsEngine6DeleteEv @ 10 NONAME
	_ZN12TDpsAbortJob11FillReqArgsER6RArrayI7TDpsArgERS0_I7TDpsEleERjP15CDpsTransaction @ 11 NONAME
	_ZN12TDpsStartJob11FillReqArgsER6RArrayI7TDpsArgERS0_I7TDpsEleERjP15CDpsTransaction @ 12 NONAME
	_ZN12TDpsStartJob16CreateReqScriptLERK6RArrayI7TDpsArgERKS0_I7TDpsEleEjR12RWriteStreamP15CDpsTransaction @ 13 NONAME
	_ZN13TDpsPrintInfo5ResetEv @ 14 NONAME
	_ZN14TMDpsOperation16CreateReqScriptLERK6RArrayI7TDpsArgERKS0_I7TDpsEleEjR12RWriteStreamP15CDpsTransaction @ 15 NONAME
	_ZN15TDpsStartJobReq11GetParamNumEv @ 16 NONAME
	_ZN16TDpsGetJobStatus11FillRepArgsERK6RArrayI7TDpsArgEP15CDpsTransaction @ 17 NONAME
	_ZN16TDpsJobStatusRep5ResetEv @ 18 NONAME
	_ZN17TDpsGetCapability11FillRepArgsERK6RArrayI7TDpsArgEP15CDpsTransaction @ 19 NONAME
	_ZN17TDpsGetCapability11FillReqArgsER6RArrayI7TDpsArgERS0_I7TDpsEleERjP15CDpsTransaction @ 20 NONAME
	_ZN17TDpsGetCapability16CreateReqScriptLERK6RArrayI7TDpsArgERKS0_I7TDpsEleEjR12RWriteStreamP15CDpsTransaction @ 21 NONAME
	_ZN20TDpsGetPrinterStatus11FillRepArgsERK6RArrayI7TDpsArgEP15CDpsTransaction @ 22 NONAME
	_ZN22TDpsConfigPrintService11FillRepArgsERK6RArrayI7TDpsArgEP15CDpsTransaction @ 23 NONAME
	_ZN22TDpsConfigPrintService11FillReqArgsER6RArrayI7TDpsArgERS0_I7TDpsEleERjP15CDpsTransaction @ 24 NONAME
	_ZNK10CDpsEngine9DpsFolderEv @ 25 NONAME
	_ZTI12TDpsAbortJob @ 26 NONAME ; #<TI>#
	_ZTI12TDpsStartJob @ 27 NONAME ; #<TI>#
	_ZTI14TMDpsOperation @ 28 NONAME ; #<TI>#
	_ZTI16TDpsGetJobStatus @ 29 NONAME ; #<TI>#
	_ZTI17TDpsGetCapability @ 30 NONAME ; #<TI>#
	_ZTI20TDpsGetPrinterStatus @ 31 NONAME ; #<TI>#
	_ZTI22TDpsConfigPrintService @ 32 NONAME ; #<TI>#
	_ZTV12TDpsAbortJob @ 33 NONAME ; #<VT>#
	_ZTV12TDpsStartJob @ 34 NONAME ; #<VT>#
	_ZTV14TMDpsOperation @ 35 NONAME ; #<VT>#
	_ZTV16TDpsGetJobStatus @ 36 NONAME ; #<VT>#
	_ZTV17TDpsGetCapability @ 37 NONAME ; #<VT>#
	_ZTV20TDpsGetPrinterStatus @ 38 NONAME ; #<VT>#
	_ZTV22TDpsConfigPrintService @ 39 NONAME ; #<VT>#

