EXPORTS
	_ZN13XQServiceUtil10isEmbeddedEv @ 1 NONAME
	_ZN13XQServiceUtil12toBackgroundEb @ 2 NONAME
	_ZN16XQServiceManager11qt_metacallEN11QMetaObject4CallEiPPv @ 3 NONAME
	_ZN16XQServiceManager11qt_metacastEPKc @ 4 NONAME
	_ZN16XQServiceManager11startServerERK7QStringbRiRy @ 5 NONAME
	_ZN16XQServiceManager16staticMetaObjectE @ 6 NONAME DATA 16
	_ZN16XQServiceManager19getStaticMetaObjectEv @ 7 NONAME
	_ZN16XQServiceManagerC1Ev @ 8 NONAME
	_ZN16XQServiceManagerC2Ev @ 9 NONAME
	_ZN16XQServiceManagerD0Ev @ 10 NONAME
	_ZN16XQServiceManagerD1Ev @ 11 NONAME
	_ZN16XQServiceManagerD2Ev @ 12 NONAME
	_ZN24XQAiwInterfaceDescriptor11setPropertyENS_11PropertyKeyE8QVariant @ 13 NONAME
	_ZN24XQAiwInterfaceDescriptorC1ERKS_ @ 14 NONAME
	_ZN24XQAiwInterfaceDescriptorC1Ev @ 15 NONAME
	_ZN24XQAiwInterfaceDescriptorC2ERKS_ @ 16 NONAME
	_ZN24XQAiwInterfaceDescriptorC2Ev @ 17 NONAME
	_ZN24XQAiwInterfaceDescriptorD1Ev @ 18 NONAME
	_ZN24XQAiwInterfaceDescriptorD2Ev @ 19 NONAME
	_ZN24XQAiwInterfaceDescriptoraSERKS_ @ 20 NONAME
	_ZNK16XQServiceManager10metaObjectEv @ 21 NONAME
	_ZNK16XQServiceManager14findInterfacesERK7QString @ 22 NONAME
	_ZNK24XQAiwInterfaceDescriptor11serviceNameEv @ 23 NONAME
	_ZNK24XQAiwInterfaceDescriptor12majorVersionEv @ 24 NONAME
	_ZNK24XQAiwInterfaceDescriptor12minorVersionEv @ 25 NONAME
	_ZNK24XQAiwInterfaceDescriptor13inSystemScopeEv @ 26 NONAME
	_ZNK24XQAiwInterfaceDescriptor13interfaceNameEv @ 27 NONAME
	_ZNK24XQAiwInterfaceDescriptor14customPropertyERK7QString @ 28 NONAME
	_ZNK24XQAiwInterfaceDescriptor7isValidEv @ 29 NONAME
	_ZNK24XQAiwInterfaceDescriptor8propertyENS_11PropertyKeyE @ 30 NONAME
	_ZNK24XQAiwInterfaceDescriptoreqERKS_ @ 31 NONAME
	_ZTI16XQServiceManager @ 32 NONAME
	_ZTV16XQServiceManager @ 33 NONAME
	_Zls6QDebugRK24XQAiwInterfaceDescriptor @ 34 NONAME
	_ZlsR11QDataStreamRK24XQAiwInterfaceDescriptor @ 35 NONAME
	_ZrsR11QDataStreamR24XQAiwInterfaceDescriptor @ 36 NONAME
	_ZNK16XQServiceManager14findInterfacesERK7QStringS2_ @ 37 NONAME
	_ZN13XQServiceUtil9isServiceEv @ 38 NONAME
	_ZNK24XQAiwInterfaceDescriptor18customPropertyKeysEv @ 39 NONAME
	_ZN16XQServiceManager11startServerERK7QStringbRiRyPKv @ 40 NONAME
	_ZN13XQRequestInfo11setEmbeddedEb @ 41 NONAME
	_ZN13XQRequestInfo13setBackgroundEb @ 42 NONAME
	_ZN13XQRequestInfo7setInfoERK7QStringRK8QVariant @ 43 NONAME
	_ZN13XQRequestInfoC1Ev @ 44 NONAME
	_ZN13XQRequestInfoC2Ev @ 45 NONAME
	_ZN13XQRequestInfoD0Ev @ 46 NONAME
	_ZN13XQRequestInfoD1Ev @ 47 NONAME
	_ZN13XQRequestInfoD2Ev @ 48 NONAME
	_ZN13XQRequestUtil14setSynchronousEb @ 49 NONAME
	_ZN13XQRequestUtil15setSecurityInfoEjjj @ 50 NONAME
	_ZN13XQRequestUtilC1Ev @ 51 NONAME
	_ZN13XQRequestUtilC2Ev @ 52 NONAME
	_ZN13XQRequestUtilD0Ev @ 53 NONAME
	_ZN13XQRequestUtilD1Ev @ 54 NONAME
	_ZN13XQRequestUtilD2Ev @ 55 NONAME
	_ZN14XQSharableFile4openERK7QString @ 56 NONAME
	_ZN14XQSharableFile5closeEv @ 57 NONAME
	_ZN14XQSharableFile9setHandleER5RFile @ 58 NONAME
	_ZN14XQSharableFileC1ER5RFile @ 59 NONAME
	_ZN14XQSharableFileC1Ev @ 60 NONAME
	_ZN14XQSharableFileC2ER5RFile @ 61 NONAME
	_ZN14XQSharableFileC2Ev @ 62 NONAME
	_ZN14XQSharableFileD0Ev @ 63 NONAME
	_ZN14XQSharableFileD1Ev @ 64 NONAME
	_ZN14XQSharableFileD2Ev @ 65 NONAME
	_ZN14XQSharableFileeqERKS_ @ 66 NONAME
	_ZNK13XQRequestInfo10isEmbeddedEv @ 67 NONAME
	_ZNK13XQRequestInfo12isBackgroundEv @ 68 NONAME
	_ZNK13XQRequestInfo13isSynchronousEv @ 69 NONAME
	_ZNK13XQRequestInfo14clientSecureIdEv @ 70 NONAME
	_ZNK13XQRequestInfo14clientVendorIdEv @ 71 NONAME
	_ZNK13XQRequestInfo18clientCapabilitiesEv @ 72 NONAME
	_ZNK13XQRequestInfo4infoERK7QString @ 73 NONAME
	_ZNK13XQRequestInfo7isValidEv @ 74 NONAME
	_ZNK13XQRequestInfo8infoKeysEv @ 75 NONAME
	_ZNK13XQRequestUtil15getSharableFileEi @ 76 NONAME
	_ZNK14XQSharableFile7isValidEv @ 77 NONAME
	_ZNK14XQSharableFile8fileNameEv @ 78 NONAME
	_ZNK14XQSharableFile9getHandleER5RFile @ 79 NONAME
	_ZTI13XQRequestInfo @ 80 NONAME
	_ZTI13XQRequestUtil @ 81 NONAME
	_ZTI14XQSharableFile @ 82 NONAME
	_ZTV13XQRequestInfo @ 83 NONAME
	_ZTV13XQRequestUtil @ 84 NONAME
	_ZTV14XQSharableFile @ 85 NONAME
	_ZNK16XQServiceManager11latestErrorEv @ 86 NONAME
	_ZN13XQRequestUtil8mapErrorEi @ 87 NONAME
	_ZN13XQServiceUtil13interfaceNameEv @ 88 NONAME
	_ZN13XQServiceUtil13operationNameEv @ 89 NONAME
	_ZNK13XQRequestInfo2idEv @ 90 NONAME
	_ZNK16XQServiceManager9isRunningERK24XQAiwInterfaceDescriptor @ 91 NONAME
	_ZN13XQRequestInfo13setForegroundEb @ 92 NONAME
	_ZNK13XQRequestInfo12isForegroundEv @ 93 NONAME
	_ZN13XQRequestUtil11channelNameERK7QString @ 94 NONAME
	_ZNK16XQServiceManager18findFirstInterfaceERK7QString @ 95 NONAME
	_ZNK16XQServiceManager18findFirstInterfaceERK7QStringS2_ @ 96 NONAME
	_ZN13XQServiceUtil10isEmbeddedEiPPc @ 97 NONAME
	_ZN13XQServiceUtil11serviceNameEiPPc @ 98 NONAME
	_ZN13XQServiceUtil11serviceNameEv @ 99 NONAME
	_ZN13XQServiceUtil13interfaceNameEiPPc @ 100 NONAME
	_ZN13XQServiceUtil13operationNameEiPPc @ 101 NONAME
	_ZN13XQServiceUtil9isServiceEiPPc @ 102 NONAME
	_ZN13XQServiceUtil17serviceIdFromNameEPKc @ 103 NONAME
	_ZN14XQServiceUtils21closeWhenClientClosedEv @ 104 NONAME
