EXPORTS
	_ZN12XQAiwRequest11qt_metacallEN11QMetaObject4CallEiPPv @ 1 NONAME
	_ZN12XQAiwRequest11qt_metacastEPKc @ 2 NONAME
	_ZN12XQAiwRequest11sendExecuteEv @ 3 NONAME
	_ZN12XQAiwRequest12createActionEv @ 4 NONAME
	_ZN12XQAiwRequest12requestErrorEiRK7QString @ 5 NONAME
	_ZN12XQAiwRequest12setArgumentsERK5QListI8QVariantE @ 6 NONAME
	_ZN12XQAiwRequest14sendFromActionEb @ 7 NONAME
	_ZN12XQAiwRequest16staticMetaObjectE @ 8 NONAME DATA 16
	_ZN12XQAiwRequest19getStaticMetaObjectEv @ 9 NONAME
	_ZN12XQAiwRequest19handleAsyncResponseERK8QVariant @ 10 NONAME
	_ZN12XQAiwRequest4sendEv @ 11 NONAME
	_ZN12XQAiwRequest9requestOkERK8QVariant @ 12 NONAME
	_ZN12XQAiwRequest9triggeredEv @ 13 NONAME
	_ZN12XQAiwRequestC1ERK24XQAiwInterfaceDescriptorRK7QStringb @ 14 NONAME
	_ZN12XQAiwRequestC2ERK24XQAiwInterfaceDescriptorRK7QStringb @ 15 NONAME
	_ZN12XQAiwRequestD0Ev @ 16 NONAME
	_ZN12XQAiwRequestD1Ev @ 17 NONAME
	_ZN12XQAiwRequestD2Ev @ 18 NONAME
	_ZN16XQServiceAdaptor10publishAllENS_11PublishTypeE @ 19 NONAME
	_ZN16XQServiceAdaptor10publishAllEP7QObjectiNS_11PublishTypeE @ 20 NONAME
	_ZN16XQServiceAdaptor11isConnectedERK10QByteArray @ 21 NONAME
	_ZN16XQServiceAdaptor11latestErrorEv @ 22 NONAME
	_ZN16XQServiceAdaptor11qt_metacallEN11QMetaObject4CallEiPPv @ 23 NONAME
	_ZN16XQServiceAdaptor11qt_metacastEPKc @ 24 NONAME
	_ZN16XQServiceAdaptor11sendMessageERK7QStringRK5QListI8QVariantERS4_ @ 25 NONAME
	_ZN16XQServiceAdaptor15completeRequestEiRK8QVariant @ 26 NONAME
	_ZN16XQServiceAdaptor15memberToMessageERK10QByteArray @ 27 NONAME
	_ZN16XQServiceAdaptor16staticMetaObjectE @ 28 NONAME DATA 16
	_ZN16XQServiceAdaptor17cancelPendingSendERK7QString @ 29 NONAME
	_ZN16XQServiceAdaptor17receiverDestroyedEv @ 30 NONAME
	_ZN16XQServiceAdaptor19getStaticMetaObjectEv @ 31 NONAME
	_ZN16XQServiceAdaptor20connectLocalToRemoteEP7QObjectRK10QByteArrayS4_ @ 32 NONAME
	_ZN16XQServiceAdaptor20connectRemoteToLocalERK10QByteArrayP7QObjectS2_ @ 33 NONAME
	_ZN16XQServiceAdaptor20returnValueDeliveredEv @ 34 NONAME
	_ZN16XQServiceAdaptor22setCurrentRequestAsyncEv @ 35 NONAME
	_ZN16XQServiceAdaptor4sendERK10QByteArrayRK5QListI8QVariantERS4_ @ 36 NONAME
	_ZN16XQServiceAdaptor4sendERK10QByteArrayRK8QVariantRS3_ @ 37 NONAME
	_ZN16XQServiceAdaptor4sendERK10QByteArrayRK8QVariantS5_RS3_ @ 38 NONAME
	_ZN16XQServiceAdaptor4sendERK10QByteArrayRK8QVariantS5_S5_RS3_ @ 39 NONAME
	_ZN16XQServiceAdaptor4sendERK7QStringS2_RK5QListI8QVariantERS4_bP30XQServiceRequestCompletedAsync @ 40 NONAME
	_ZN16XQServiceAdaptor7connectEP7QObjectRK10QByteArrayS1_S4_ @ 41 NONAME
	_ZN16XQServiceAdaptor7publishERK10QByteArray @ 42 NONAME
	_ZN16XQServiceAdaptor8receivedERK7QStringRK10QByteArray @ 43 NONAME ABSENT
	_ZN16XQServiceAdaptorC1ERK7QStringP7QObject @ 44 NONAME
	_ZN16XQServiceAdaptorC2ERK7QStringP7QObject @ 45 NONAME
	_ZN16XQServiceAdaptorD0Ev @ 46 NONAME
	_ZN16XQServiceAdaptorD1Ev @ 47 NONAME
	_ZN16XQServiceAdaptorD2Ev @ 48 NONAME
	_ZN16XQServiceChannel11latestErrorEv @ 49 NONAME
	_ZN16XQServiceChannel11qt_metacallEN11QMetaObject4CallEiPPv @ 50 NONAME
	_ZN16XQServiceChannel11qt_metacastEPKc @ 51 NONAME
	_ZN16XQServiceChannel11sendCommandERK7QStringNS_16XQServiceCommandE @ 52 NONAME
	_ZN16XQServiceChannel11sendLocallyERK7QStringS2_RK10QByteArray @ 53 NONAME ABSENT
	_ZN16XQServiceChannel14commandReceiveENS_16XQServiceCommandE @ 54 NONAME
	_ZN16XQServiceChannel14connectChannelEv @ 55 NONAME
	_ZN16XQServiceChannel15commandReceivedENS_16XQServiceCommandE @ 56 NONAME
	_ZN16XQServiceChannel16staticMetaObjectE @ 57 NONAME DATA 16
	_ZN16XQServiceChannel17cancelPendingSendERK7QString @ 58 NONAME
	_ZN16XQServiceChannel19getStaticMetaObjectEv @ 59 NONAME
	_ZN16XQServiceChannel4sendERK7QStringS2_RK10QByteArrayR8QVariantbP30XQServiceRequestCompletedAsync @ 60 NONAME
	_ZN16XQServiceChannel7receiveERK7QStringRK10QByteArray @ 61 NONAME ABSENT
	_ZN16XQServiceChannel8receivedERK7QStringRK10QByteArray @ 62 NONAME ABSENT
	_ZN16XQServiceChannelC1ERK7QStringbP7QObject @ 63 NONAME
	_ZN16XQServiceChannelC2ERK7QStringbP7QObject @ 64 NONAME
	_ZN16XQServiceChannelD0Ev @ 65 NONAME
	_ZN16XQServiceChannelD1Ev @ 66 NONAME
	_ZN16XQServiceChannelD2Ev @ 67 NONAME
	_ZN16XQServiceRequest10setMessageERK7QString @ 68 NONAME
	_ZN16XQServiceRequest10setServiceERK7QString @ 69 NONAME
	_ZN16XQServiceRequest11latestErrorEv @ 70 NONAME
	_ZN16XQServiceRequest11qt_metacallEN11QMetaObject4CallEiPPv @ 71 NONAME
	_ZN16XQServiceRequest11qt_metacastEPKc @ 72 NONAME
	_ZN16XQServiceRequest12requestErrorEi @ 73 NONAME
	_ZN16XQServiceRequest12setArgumentsERK5QListI8QVariantE @ 74 NONAME
	_ZN16XQServiceRequest14setSynchronousERKb @ 75 NONAME
	_ZN16XQServiceRequest16requestCompletedERK8QVariant @ 76 NONAME
	_ZN16XQServiceRequest16staticMetaObjectE @ 77 NONAME DATA 16
	_ZN16XQServiceRequest18serializeArgumentsERKS_ @ 78 NONAME
	_ZN16XQServiceRequest19getStaticMetaObjectEv @ 79 NONAME
	_ZN16XQServiceRequest20deserializeArgumentsERS_RK10QByteArray @ 80 NONAME
	_ZN16XQServiceRequest4sendER8QVariant @ 81 NONAME
	_ZN16XQServiceRequest4sendEv @ 82 NONAME
	_ZN16XQServiceRequest6addArgERK8QVariant @ 83 NONAME
	_ZN16XQServiceRequestC1ERK7QStringS2_RKb @ 84 NONAME
	_ZN16XQServiceRequestC1ERKS_ @ 85 NONAME
	_ZN16XQServiceRequestC1Ev @ 86 NONAME
	_ZN16XQServiceRequestC2ERK7QStringS2_RKb @ 87 NONAME
	_ZN16XQServiceRequestC2ERKS_ @ 88 NONAME
	_ZN16XQServiceRequestC2Ev @ 89 NONAME
	_ZN16XQServiceRequestD0Ev @ 90 NONAME
	_ZN16XQServiceRequestD1Ev @ 91 NONAME
	_ZN16XQServiceRequestD2Ev @ 92 NONAME
	_ZN16XQServiceRequestaSERKS_ @ 93 NONAME
	_ZN17XQServiceProvider10publishAllEv @ 94 NONAME
	_ZN17XQServiceProvider11qt_metacallEN11QMetaObject4CallEiPPv @ 95 NONAME
	_ZN17XQServiceProvider11qt_metacastEPKc @ 96 NONAME
	_ZN17XQServiceProvider15completeRequestEiRK8QVariant @ 97 NONAME
	_ZN17XQServiceProvider16staticMetaObjectE @ 98 NONAME DATA 16
	_ZN17XQServiceProvider19getStaticMetaObjectEv @ 99 NONAME
	_ZN17XQServiceProvider20returnValueDeliveredEv @ 100 NONAME
	_ZN17XQServiceProvider22setCurrentRequestAsyncEv @ 101 NONAME
	_ZN17XQServiceProvider9SetPluginEP7QObject @ 102 NONAME
	_ZN17XQServiceProviderC1ERK7QStringP7QObject @ 103 NONAME
	_ZN17XQServiceProviderC2ERK7QStringP7QObject @ 104 NONAME
	_ZN17XQServiceProviderD0Ev @ 105 NONAME
	_ZN17XQServiceProviderD1Ev @ 106 NONAME
	_ZN17XQServiceProviderD2Ev @ 107 NONAME
	_ZN20XQApplicationManager11qt_metacallEN11QMetaObject4CallEiPPv @ 108 NONAME
	_ZN20XQApplicationManager11qt_metacastEPKc @ 109 NONAME
	_ZN20XQApplicationManager16staticMetaObjectE @ 110 NONAME DATA 16
	_ZN20XQApplicationManager19getStaticMetaObjectEv @ 111 NONAME
	_ZN20XQApplicationManager4listERK7QStringS2_ @ 112 NONAME
	_ZN20XQApplicationManager6createERK24XQAiwInterfaceDescriptorRK7QStringb @ 113 NONAME
	_ZN20XQApplicationManager6createERK7QStringS2_b @ 114 NONAME
	_ZN20XQApplicationManagerC1Ev @ 115 NONAME
	_ZN20XQApplicationManagerC2Ev @ 116 NONAME
	_ZN20XQApplicationManagerD0Ev @ 117 NONAME
	_ZN20XQApplicationManagerD1Ev @ 118 NONAME
	_ZN20XQApplicationManagerD2Ev @ 119 NONAME
	_ZNK12XQAiwRequest10descriptorEv @ 120 NONAME
	_ZNK12XQAiwRequest10metaObjectEv @ 121 NONAME
	_ZNK12XQAiwRequest16lastErrorMessageEv @ 122 NONAME
	_ZNK12XQAiwRequest7resultsEv @ 123 NONAME
	_ZNK12XQAiwRequest9lastErrorEv @ 124 NONAME
	_ZNK16XQServiceAdaptor10metaObjectEv @ 125 NONAME
	_ZNK16XQServiceAdaptor7channelEv @ 126 NONAME
	_ZNK16XQServiceChannel10metaObjectEv @ 127 NONAME
	_ZNK16XQServiceChannel7channelEv @ 128 NONAME
	_ZNK16XQServiceRequest10metaObjectEv @ 129 NONAME
	_ZNK16XQServiceRequest13isSynchronousEv @ 130 NONAME
	_ZNK16XQServiceRequest6isNullEv @ 131 NONAME
	_ZNK16XQServiceRequest7messageEv @ 132 NONAME
	_ZNK16XQServiceRequest7serviceEv @ 133 NONAME
	_ZNK16XQServiceRequest9argumentsEv @ 134 NONAME
	_ZNK17XQServiceProvider10metaObjectEv @ 135 NONAME
	_ZNK20XQApplicationManager10metaObjectEv @ 136 NONAME
	_ZTI12XQAiwRequest @ 137 NONAME
	_ZTI16XQServiceAdaptor @ 138 NONAME
	_ZTI16XQServiceChannel @ 139 NONAME
	_ZTI16XQServiceRequest @ 140 NONAME
	_ZTI17XQServiceProvider @ 141 NONAME
	_ZTI20XQApplicationManager @ 142 NONAME
	_ZTV12XQAiwRequest @ 143 NONAME
	_ZTV16XQServiceAdaptor @ 144 NONAME
	_ZTV16XQServiceChannel @ 145 NONAME
	_ZTV16XQServiceRequest @ 146 NONAME
	_ZTV17XQServiceProvider @ 147 NONAME
	_ZTV20XQApplicationManager @ 148 NONAME
	_ZN12XQAiwRequest16handleAsyncErrorEi @ 149 NONAME
	_ZN20XQApplicationManager6createERK7QStringS2_S2_b @ 150 NONAME
	_ZN12XQAiwRequest11setEmbeddedEb @ 151 NONAME
	_ZN12XQAiwRequest12setOperationERK7QString @ 152 NONAME
	_ZN12XQAiwRequest4sendER8QVariant @ 153 NONAME
	_ZN12XQAiwRequestC1ERK4QUrlRK24XQAiwInterfaceDescriptorRK7QString @ 154 NONAME
	_ZN12XQAiwRequestC1ERK5QFileRK24XQAiwInterfaceDescriptorRK7QString @ 155 NONAME
	_ZN12XQAiwRequestC2ERK4QUrlRK24XQAiwInterfaceDescriptorRK7QString @ 156 NONAME
	_ZN12XQAiwRequestC2ERK5QFileRK24XQAiwInterfaceDescriptorRK7QString @ 157 NONAME
	_ZN16XQServiceAdaptor18clientDisconnectedEv @ 158 NONAME
	_ZN16XQServiceAdaptor4sendERK7QStringS2_RK5QListI8QVariantERS4_bP30XQServiceRequestCompletedAsyncPKv @ 159 NONAME
	_ZN16XQServiceChannel4sendERK7QStringS2_RK10QByteArrayR8QVariantbP30XQServiceRequestCompletedAsyncPKv @ 160 NONAME
	_ZN16XQServiceRequestC1ERK24XQAiwInterfaceDescriptorRK7QStringRKb @ 161 NONAME
	_ZN16XQServiceRequestC2ERK24XQAiwInterfaceDescriptorRK7QStringRKb @ 162 NONAME
	_ZN17XQServiceProvider18clientDisconnectedEv @ 163 NONAME
	_ZN20XQApplicationManager4listERK4QUrl @ 164 NONAME
	_ZN20XQApplicationManager4listERK5QFile @ 165 NONAME
	_ZN20XQApplicationManager4listERK7QStringS2_S2_ @ 166 NONAME
	_ZN20XQApplicationManager6createERK4QUrlRK24XQAiwInterfaceDescriptorb @ 167 NONAME
	_ZN20XQApplicationManager6createERK4QUrlb @ 168 NONAME
	_ZN20XQApplicationManager6createERK5QFileRK24XQAiwInterfaceDescriptorb @ 169 NONAME
	_ZN20XQApplicationManager6createERK5QFileb @ 170 NONAME
	_ZNK12XQAiwRequest10isEmbeddedEv @ 171 NONAME
	_ZNK12XQAiwRequest9operationEv @ 172 NONAME
	_ZN12XQAiwRequest13setBackgroundEb @ 173 NONAME
	_ZN12XQAiwRequest14setSynchronousEb @ 174 NONAME
	_ZN12XQAiwRequest7setInfoERK13XQRequestInfo @ 175 NONAME
	_ZN16XQServiceAdaptor8receivedERK7QStringRK10QByteArrayRK14XQSharableFile @ 176 NONAME
	_ZN16XQServiceChannel11sendLocallyERK7QStringS2_RK10QByteArrayRK14XQSharableFile @ 177 NONAME
	_ZN16XQServiceChannel7receiveERK7QStringRK10QByteArrayRK14XQSharableFile @ 178 NONAME
	_ZN16XQServiceChannel8receivedERK7QStringRK10QByteArrayRK14XQSharableFile @ 179 NONAME
	_ZN16XQServiceRequest22handleSharableFileArgsEv @ 180 NONAME
	_ZN16XQServiceRequest7setInfoERK13XQRequestInfo @ 181 NONAME
	_ZNK12XQAiwRequest12isBackgroundEv @ 182 NONAME
	_ZNK12XQAiwRequest13isSynchronousEv @ 183 NONAME
	_ZNK12XQAiwRequest4infoEv @ 184 NONAME
	_ZNK16XQServiceAdaptor11requestInfoEv @ 185 NONAME
	_ZNK16XQServiceRequest4infoEv @ 186 NONAME
	_ZNK17XQServiceProvider11requestInfoEv @ 187 NONAME
	_ZNK20XQApplicationManager9lastErrorEv @ 188 NONAME
	_ZN12XQAiwRequestC1ERK14XQSharableFileRK24XQAiwInterfaceDescriptorRK7QString @ 189 NONAME
	_ZN12XQAiwRequestC2ERK14XQSharableFileRK24XQAiwInterfaceDescriptorRK7QString @ 190 NONAME
	_ZN20XQApplicationManager4listERK14XQSharableFile @ 191 NONAME
	_ZN20XQApplicationManager6createERK14XQSharableFileRK24XQAiwInterfaceDescriptorb @ 192 NONAME
	_ZN20XQApplicationManager6createERK14XQSharableFileb @ 193 NONAME
	_ZNK20XQApplicationManager9isRunningERK24XQAiwInterfaceDescriptor @ 194 NONAME
	_ZN20XQApplicationManager16getDrmAttributesERK14XQSharableFileRK5QListIiERS3_I8QVariantE @ 195 NONAME
	_ZN20XQApplicationManager16getDrmAttributesERK5QFileRK5QListIiERS3_I8QVariantE @ 196 NONAME
	_ZN20XQApplicationManager6statusERK24XQAiwInterfaceDescriptor @ 197 NONAME
	_ZN20XQApplicationManager13notifyRunningER24XQAiwInterfaceDescriptor @ 198 NONAME
	_ZN20XQApplicationManager14serviceStartedE24XQAiwInterfaceDescriptor @ 199 NONAME
	_ZN20XQApplicationManager14serviceStoppedE24XQAiwInterfaceDescriptor @ 200 NONAME
	_ZN20XQApplicationManager19cancelNotifyRunningER24XQAiwInterfaceDescriptor @ 201 NONAME

