EXPORTS
	_ZN11CPermission10SetDefaultE17TUserPromptOption @ 1 NONAME
	_ZN11CPermission11SetPermNameERK7TDesC16 @ 2 NONAME
	_ZN11CPermission12InternalizeLER11RReadStream @ 3 NONAME
	_ZN11CPermission12SetConditionE17TUserPromptOption @ 4 NONAME
	_ZN11CPermission17AppendCapPermDataE11TCapability @ 5 NONAME
	_ZN11CPermission17SetPermissionDataEm @ 6 NONAME
	_ZN11CPermission4NewLERK6RArrayI11TCapabilityE @ 7 NONAME
	_ZN11CPermission4NewLERK6RArrayI11TCapabilityE17TUserPromptOption @ 8 NONAME
	_ZN11CPermission4NewLERK6RArrayI11TCapabilityE17TUserPromptOptionS5_ @ 9 NONAME
	_ZN11CPermission4NewLERKS_ @ 10 NONAME
	_ZN11CPermission4NewLEv @ 11 NONAME
	_ZN11CPermission5NewLCERK6RArrayI11TCapabilityE @ 12 NONAME
	_ZN11CPermission5NewLCERK6RArrayI11TCapabilityE17TUserPromptOption @ 13 NONAME
	_ZN11CPermission5NewLCERK6RArrayI11TCapabilityE17TUserPromptOptionS5_ @ 14 NONAME
	_ZN11CPermission5NewLCERKS_ @ 15 NONAME
	_ZN11CPermission5NewLCEv @ 16 NONAME
	_ZN11CPermissionD0Ev @ 17 NONAME
	_ZN11CPermissionD1Ev @ 18 NONAME
	_ZN11CPermissionD2Ev @ 19 NONAME
	_ZN14CPermissionSet11PermissionsEv @ 20 NONAME
	_ZN14CPermissionSet12InternalizeLER11RReadStream @ 21 NONAME
	_ZN14CPermissionSet15AppendUncondCapE11TCapability @ 22 NONAME
	_ZN14CPermissionSet16AppendPermissionER11CPermission @ 23 NONAME
	_ZN14CPermissionSet24AppendUncondCapabilitiesEm @ 24 NONAME
	_ZN14CPermissionSet4NewLERKS_ @ 25 NONAME
	_ZN14CPermissionSet4NewLEv @ 26 NONAME
	_ZN14CPermissionSet5NewLCERKS_ @ 27 NONAME
	_ZN14CPermissionSet5NewLCEv @ 28 NONAME
	_ZN14CPermissionSetD0Ev @ 29 NONAME
	_ZN14CPermissionSetD1Ev @ 30 NONAME
	_ZN14CPermissionSetD2Ev @ 31 NONAME
	_ZN26CRTSecMgrRegisterScriptMsg4NewLEiRK7TDesC16 @ 32 NONAME
	_ZN26CRTSecMgrRegisterScriptMsg5NewLCERK6TDesC8 @ 33 NONAME
	_ZN26CRTSecMgrRegisterScriptMsg5NewLCEiRK7TDesC16 @ 34 NONAME
	_ZN26CRTSecMgrRegisterScriptMsgD0Ev @ 35 NONAME
	_ZN26CRTSecMgrRegisterScriptMsgD1Ev @ 36 NONAME
	_ZN26CRTSecMgrRegisterScriptMsgD2Ev @ 37 NONAME
	_ZN7CScript12InternalizeLER11RReadStream @ 38 NONAME
	_ZN7CScript13PermissionSetEv @ 39 NONAME
	_ZN7CScript13SetPermDeniedEm @ 40 NONAME
	_ZN7CScript14SetPermGrantedEm @ 41 NONAME
	_ZN7CScript16SetPermissionSetERK14CPermissionSet @ 42 NONAME
	_ZN7CScript4NewLEii @ 43 NONAME
	_ZN7CScript5NewLCEii @ 44 NONAME
	_ZN7CScriptD0Ev @ 45 NONAME
	_ZN7CScriptD1Ev @ 46 NONAME
	_ZN7CScriptD2Ev @ 47 NONAME
	_ZN7CScriptaSERKS_ @ 48 NONAME
	_ZNK11CPermission10CapabilityEv @ 49 NONAME
	_ZNK11CPermission12ExternalizeLER12RWriteStream @ 50 NONAME
	_ZNK11CPermission14PermissionDataEv @ 51 NONAME
	_ZNK11CPermission15CapabilitilitesER6RArrayI11TCapabilityE @ 52 NONAME
	_ZNK11CPermission7DefaultEv @ 53 NONAME
	_ZNK11CPermission8PermNameEv @ 54 NONAME
	_ZNK11CPermission9ConditionEv @ 55 NONAME
	_ZNK14CPermissionSet11PermissionsEv @ 56 NONAME
	_ZNK14CPermissionSet12ExternalizeLER12RWriteStream @ 57 NONAME
	_ZNK14CPermissionSet17UnconditionalCapsER6RArrayI11TCapabilityE @ 58 NONAME
	_ZNK14CPermissionSet17UnconditionalCapsEv @ 59 NONAME
	_ZNK26CRTSecMgrRegisterScriptMsg8PackMsgLEv @ 60 NONAME
	_ZNK7CScript10PermDeniedEv @ 61 NONAME
	_ZNK7CScript11PermGrantedEv @ 62 NONAME
	_ZNK7CScript12ExternalizeLER12RWriteStream @ 63 NONAME
	_ZNK7CScript13PermissionSetEv @ 64 NONAME
	_ZNK7CScript8PolicyIDEv @ 65 NONAME
	_ZNK7CScript8ScriptIDEv @ 66 NONAME
	_ZN19CRTPermGrantMessage11setScriptIDEi @ 67 NONAME
	_ZN19CRTPermGrantMessage12PackMessageLEv @ 68 NONAME
	_ZN19CRTPermGrantMessage15DeniedProvidersER6RArrayI4TUidE @ 69 NONAME
	_ZN19CRTPermGrantMessage16AllowedProvidersER6RArrayI4TUidE @ 70 NONAME
	_ZN19CRTPermGrantMessage18setDeniedProvidersE6RArrayI4TUidE @ 71 NONAME
	_ZN19CRTPermGrantMessage19setAllowedProvidersE6RArrayI4TUidE @ 72 NONAME
	_ZN19CRTPermGrantMessage4NewLE6RArrayI4TUidES2_i @ 73 NONAME
	_ZN19CRTPermGrantMessage4NewLERK6TDesC8 @ 74 NONAME
	_ZN19CRTPermGrantMessage4NewLEv @ 75 NONAME
	_ZN19CRTPermGrantMessage5NewLCE6RArrayI4TUidES2_i @ 76 NONAME
	_ZN19CRTPermGrantMessage5NewLCERK6TDesC8 @ 77 NONAME
	_ZN19CRTPermGrantMessage5NewLCEv @ 78 NONAME
	_ZN19CRTPermGrantMessage8ScriptIDEv @ 79 NONAME
	_ZN19CRTPermGrantMessageD0Ev @ 80 NONAME
	_ZN19CRTPermGrantMessageD1Ev @ 81 NONAME
	_ZN19CRTPermGrantMessageD2Ev @ 82 NONAME
	_ZN7CScript10PermDeniedER6RArrayI4TUidE @ 83 NONAME
	_ZN7CScript11PermGrantedER6RArrayI4TUidE @ 84 NONAME
	_ZN7CScript13SetPermDeniedE6RArrayI4TUidE @ 85 NONAME
	_ZN7CScript14SetPermGrantedE6RArrayI4TUidE @ 86 NONAME

