EXPORTS
	?errorId@XqKeyCapture@@QBEHXZ @ 1 NONAME ABSENT ; int XqKeyCapture::errorId(void) const
	?captureLongKey@XqKeyCapture@@QAE_NW4Key@Qt@@V?$QFlags@W4KeyboardModifier@Qt@@@@1W4LongFlags@1@@Z @ 2 NONAME ABSENT ; bool XqKeyCapture::captureLongKey(enum Qt::Key, class QFlags<enum Qt::KeyboardModifier>, class QFlags<enum Qt::KeyboardModifier>, enum XqKeyCapture::LongFlags)
	?captureKeyUpAndDowns@XqKeyCapture@@QAE_NW4Key@Qt@@V?$QFlags@W4KeyboardModifier@Qt@@@@1@Z @ 3 NONAME ABSENT ; bool XqKeyCapture::captureKeyUpAndDowns(enum Qt::Key, class QFlags<enum Qt::KeyboardModifier>, class QFlags<enum Qt::KeyboardModifier>)
	??0XqKeyCapture@@QAE@XZ @ 4 NONAME ABSENT ; XqKeyCapture::XqKeyCapture(void)
	?cancelCaptureKeyUpAndDowns@XqKeyCapture@@QAE_NW4Key@Qt@@V?$QFlags@W4KeyboardModifier@Qt@@@@1@Z @ 5 NONAME ABSENT ; bool XqKeyCapture::cancelCaptureKeyUpAndDowns(enum Qt::Key, class QFlags<enum Qt::KeyboardModifier>, class QFlags<enum Qt::KeyboardModifier>)
	?cancelCaptureLongKey@XqKeyCapture@@QAE_NW4Key@Qt@@V?$QFlags@W4KeyboardModifier@Qt@@@@1W4LongFlags@1@@Z @ 6 NONAME ABSENT ; bool XqKeyCapture::cancelCaptureLongKey(enum Qt::Key, class QFlags<enum Qt::KeyboardModifier>, class QFlags<enum Qt::KeyboardModifier>, enum XqKeyCapture::LongFlags)
	?cancelCaptureKey@XqKeyCapture@@QAE_NW4Key@Qt@@V?$QFlags@W4KeyboardModifier@Qt@@@@1@Z @ 7 NONAME ABSENT ; bool XqKeyCapture::cancelCaptureKey(enum Qt::Key, class QFlags<enum Qt::KeyboardModifier>, class QFlags<enum Qt::KeyboardModifier>)
	?errorString@XqKeyCapture@@QBE?AVQString@@XZ @ 8 NONAME ABSENT ; class QString XqKeyCapture::errorString(void) const
	?captureKey@XqKeyCapture@@QAE_NW4Key@Qt@@V?$QFlags@W4KeyboardModifier@Qt@@@@1@Z @ 9 NONAME ABSENT ; bool XqKeyCapture::captureKey(enum Qt::Key, class QFlags<enum Qt::KeyboardModifier>, class QFlags<enum Qt::KeyboardModifier>)
	??1XqKeyCapture@@QAE@XZ @ 10 NONAME ABSENT ; XqKeyCapture::~XqKeyCapture(void)
	?captureKeyUpAndDowns@XqKeyCapture@@QAE_NIV?$QFlags@W4KeyboardModifier@Qt@@@@0@Z @ 11 NONAME ABSENT ; bool XqKeyCapture::captureKeyUpAndDowns(unsigned int, class QFlags<enum Qt::KeyboardModifier>, class QFlags<enum Qt::KeyboardModifier>)
	?captureKey@XqKeyCapture@@QAE_NIV?$QFlags@W4KeyboardModifier@Qt@@@@0@Z @ 12 NONAME ABSENT ; bool XqKeyCapture::captureKey(unsigned int, class QFlags<enum Qt::KeyboardModifier>, class QFlags<enum Qt::KeyboardModifier>)
	?cancelCaptureKeyUpAndDowns@XqKeyCapture@@QAE_NIV?$QFlags@W4KeyboardModifier@Qt@@@@0@Z @ 13 NONAME ABSENT ; bool XqKeyCapture::cancelCaptureKeyUpAndDowns(unsigned int, class QFlags<enum Qt::KeyboardModifier>, class QFlags<enum Qt::KeyboardModifier>)
	?captureLongKey@XqKeyCapture@@QAE_NIV?$QFlags@W4KeyboardModifier@Qt@@@@0W4LongFlags@1@@Z @ 14 NONAME ABSENT ; bool XqKeyCapture::captureLongKey(unsigned int, class QFlags<enum Qt::KeyboardModifier>, class QFlags<enum Qt::KeyboardModifier>, enum XqKeyCapture::LongFlags)
	?cancelCaptureKey@XqKeyCapture@@QAE_NIV?$QFlags@W4KeyboardModifier@Qt@@@@0@Z @ 15 NONAME ABSENT ; bool XqKeyCapture::cancelCaptureKey(unsigned int, class QFlags<enum Qt::KeyboardModifier>, class QFlags<enum Qt::KeyboardModifier>)
	?cancelCaptureLongKey@XqKeyCapture@@QAE_NIV?$QFlags@W4KeyboardModifier@Qt@@@@0W4LongFlags@1@@Z @ 16 NONAME ABSENT ; bool XqKeyCapture::cancelCaptureLongKey(unsigned int, class QFlags<enum Qt::KeyboardModifier>, class QFlags<enum Qt::KeyboardModifier>, enum XqKeyCapture::LongFlags)
	?captureKey@XqKeyCapture@@QAE_NV?$QList@W4Key@Qt@@@@V?$QFlags@W4KeyboardModifier@Qt@@@@1@Z @ 17 NONAME ABSENT ; bool XqKeyCapture::captureKey(class QList<enum Qt::Key>, class QFlags<enum Qt::KeyboardModifier>, class QFlags<enum Qt::KeyboardModifier>)
	?cancelCaptureKeyUpAndDowns@XqKeyCapture@@QAE_NV?$QList@I@@V?$QFlags@W4KeyboardModifier@Qt@@@@1@Z @ 18 NONAME ABSENT ; bool XqKeyCapture::cancelCaptureKeyUpAndDowns(class QList<unsigned int>, class QFlags<enum Qt::KeyboardModifier>, class QFlags<enum Qt::KeyboardModifier>)
	?cancelCaptureLongKey@XqKeyCapture@@QAE_NV?$QList@W4Key@Qt@@@@V?$QFlags@W4KeyboardModifier@Qt@@@@1W4LongFlags@1@@Z @ 19 NONAME ABSENT ; bool XqKeyCapture::cancelCaptureLongKey(class QList<enum Qt::Key>, class QFlags<enum Qt::KeyboardModifier>, class QFlags<enum Qt::KeyboardModifier>, enum XqKeyCapture::LongFlags)
	?captureLongKey@XqKeyCapture@@QAE_NV?$QList@W4Key@Qt@@@@V?$QFlags@W4KeyboardModifier@Qt@@@@1W4LongFlags@1@@Z @ 20 NONAME ABSENT ; bool XqKeyCapture::captureLongKey(class QList<enum Qt::Key>, class QFlags<enum Qt::KeyboardModifier>, class QFlags<enum Qt::KeyboardModifier>, enum XqKeyCapture::LongFlags)
	?captureKeyUpAndDowns@XqKeyCapture@@QAE_NV?$QList@W4Key@Qt@@@@V?$QFlags@W4KeyboardModifier@Qt@@@@1@Z @ 21 NONAME ABSENT ; bool XqKeyCapture::captureKeyUpAndDowns(class QList<enum Qt::Key>, class QFlags<enum Qt::KeyboardModifier>, class QFlags<enum Qt::KeyboardModifier>)
	?captureKeyUpAndDowns@XqKeyCapture@@QAE_NV?$QList@I@@V?$QFlags@W4KeyboardModifier@Qt@@@@1@Z @ 22 NONAME ABSENT ; bool XqKeyCapture::captureKeyUpAndDowns(class QList<unsigned int>, class QFlags<enum Qt::KeyboardModifier>, class QFlags<enum Qt::KeyboardModifier>)
	?cancelCaptureKey@XqKeyCapture@@QAE_NV?$QList@W4Key@Qt@@@@V?$QFlags@W4KeyboardModifier@Qt@@@@1@Z @ 23 NONAME ABSENT ; bool XqKeyCapture::cancelCaptureKey(class QList<enum Qt::Key>, class QFlags<enum Qt::KeyboardModifier>, class QFlags<enum Qt::KeyboardModifier>)
	?captureLongKey@XqKeyCapture@@QAE_NV?$QList@I@@V?$QFlags@W4KeyboardModifier@Qt@@@@1W4LongFlags@1@@Z @ 24 NONAME ABSENT ; bool XqKeyCapture::captureLongKey(class QList<unsigned int>, class QFlags<enum Qt::KeyboardModifier>, class QFlags<enum Qt::KeyboardModifier>, enum XqKeyCapture::LongFlags)
	?cancelCaptureKey@XqKeyCapture@@QAE_NV?$QList@I@@V?$QFlags@W4KeyboardModifier@Qt@@@@1@Z @ 25 NONAME ABSENT ; bool XqKeyCapture::cancelCaptureKey(class QList<unsigned int>, class QFlags<enum Qt::KeyboardModifier>, class QFlags<enum Qt::KeyboardModifier>)
	?cancelCaptureLongKey@XqKeyCapture@@QAE_NV?$QList@I@@V?$QFlags@W4KeyboardModifier@Qt@@@@1W4LongFlags@1@@Z @ 26 NONAME ABSENT ; bool XqKeyCapture::cancelCaptureLongKey(class QList<unsigned int>, class QFlags<enum Qt::KeyboardModifier>, class QFlags<enum Qt::KeyboardModifier>, enum XqKeyCapture::LongFlags)
	?cancelCaptureKeyUpAndDowns@XqKeyCapture@@QAE_NV?$QList@W4Key@Qt@@@@V?$QFlags@W4KeyboardModifier@Qt@@@@1@Z @ 27 NONAME ABSENT ; bool XqKeyCapture::cancelCaptureKeyUpAndDowns(class QList<enum Qt::Key>, class QFlags<enum Qt::KeyboardModifier>, class QFlags<enum Qt::KeyboardModifier>)
	?captureKey@XqKeyCapture@@QAE_NV?$QList@I@@V?$QFlags@W4KeyboardModifier@Qt@@@@1@Z @ 28 NONAME ABSENT ; bool XqKeyCapture::captureKey(class QList<unsigned int>, class QFlags<enum Qt::KeyboardModifier>, class QFlags<enum Qt::KeyboardModifier>)
	?captureLongKey@XQKeyCapture@@QAE_NW4Key@Qt@@V?$QFlags@W4KeyboardModifier@Qt@@@@1W4LongFlags@1@@Z @ 29 NONAME ; bool XQKeyCapture::captureLongKey(enum Qt::Key, class QFlags<enum Qt::KeyboardModifier>, class QFlags<enum Qt::KeyboardModifier>, enum XQKeyCapture::LongFlags)
	?captureLongKey@XQKeyCapture@@QAE_NV?$QList@W4Key@Qt@@@@V?$QFlags@W4KeyboardModifier@Qt@@@@1W4LongFlags@1@@Z @ 30 NONAME ; bool XQKeyCapture::captureLongKey(class QList<enum Qt::Key>, class QFlags<enum Qt::KeyboardModifier>, class QFlags<enum Qt::KeyboardModifier>, enum XQKeyCapture::LongFlags)
	?cancelCaptureKey@XQKeyCapture@@QAE_NIV?$QFlags@W4KeyboardModifier@Qt@@@@0@Z @ 31 NONAME ; bool XQKeyCapture::cancelCaptureKey(unsigned int, class QFlags<enum Qt::KeyboardModifier>, class QFlags<enum Qt::KeyboardModifier>)
	?captureKeyUpAndDowns@XQKeyCapture@@QAE_NW4Key@Qt@@V?$QFlags@W4KeyboardModifier@Qt@@@@1@Z @ 32 NONAME ; bool XQKeyCapture::captureKeyUpAndDowns(enum Qt::Key, class QFlags<enum Qt::KeyboardModifier>, class QFlags<enum Qt::KeyboardModifier>)
	?cancelCaptureKey@XQKeyCapture@@QAE_NV?$QList@W4Key@Qt@@@@V?$QFlags@W4KeyboardModifier@Qt@@@@1@Z @ 33 NONAME ; bool XQKeyCapture::cancelCaptureKey(class QList<enum Qt::Key>, class QFlags<enum Qt::KeyboardModifier>, class QFlags<enum Qt::KeyboardModifier>)
	?captureLongKey@XQKeyCapture@@QAE_NV?$QList@I@@V?$QFlags@W4KeyboardModifier@Qt@@@@1W4LongFlags@1@@Z @ 34 NONAME ; bool XQKeyCapture::captureLongKey(class QList<unsigned int>, class QFlags<enum Qt::KeyboardModifier>, class QFlags<enum Qt::KeyboardModifier>, enum XQKeyCapture::LongFlags)
	?captureKey@XQKeyCapture@@QAE_NIV?$QFlags@W4KeyboardModifier@Qt@@@@0@Z @ 35 NONAME ; bool XQKeyCapture::captureKey(unsigned int, class QFlags<enum Qt::KeyboardModifier>, class QFlags<enum Qt::KeyboardModifier>)
	?cancelCaptureKey@XQKeyCapture@@QAE_NW4Key@Qt@@V?$QFlags@W4KeyboardModifier@Qt@@@@1@Z @ 36 NONAME ; bool XQKeyCapture::cancelCaptureKey(enum Qt::Key, class QFlags<enum Qt::KeyboardModifier>, class QFlags<enum Qt::KeyboardModifier>)
	?cancelCaptureKey@XQKeyCapture@@QAE_NV?$QList@I@@V?$QFlags@W4KeyboardModifier@Qt@@@@1@Z @ 37 NONAME ; bool XQKeyCapture::cancelCaptureKey(class QList<unsigned int>, class QFlags<enum Qt::KeyboardModifier>, class QFlags<enum Qt::KeyboardModifier>)
	?cancelCaptureKeyUpAndDowns@XQKeyCapture@@QAE_NIV?$QFlags@W4KeyboardModifier@Qt@@@@0@Z @ 38 NONAME ; bool XQKeyCapture::cancelCaptureKeyUpAndDowns(unsigned int, class QFlags<enum Qt::KeyboardModifier>, class QFlags<enum Qt::KeyboardModifier>)
	?captureLongKey@XQKeyCapture@@QAE_NIV?$QFlags@W4KeyboardModifier@Qt@@@@0W4LongFlags@1@@Z @ 39 NONAME ; bool XQKeyCapture::captureLongKey(unsigned int, class QFlags<enum Qt::KeyboardModifier>, class QFlags<enum Qt::KeyboardModifier>, enum XQKeyCapture::LongFlags)
	??0XQKeyCapture@@QAE@XZ @ 40 NONAME ; XQKeyCapture::XQKeyCapture(void)
	?cancelCaptureKeyUpAndDowns@XQKeyCapture@@QAE_NV?$QList@W4Key@Qt@@@@V?$QFlags@W4KeyboardModifier@Qt@@@@1@Z @ 41 NONAME ; bool XQKeyCapture::cancelCaptureKeyUpAndDowns(class QList<enum Qt::Key>, class QFlags<enum Qt::KeyboardModifier>, class QFlags<enum Qt::KeyboardModifier>)
	?captureKey@XQKeyCapture@@QAE_NV?$QList@I@@V?$QFlags@W4KeyboardModifier@Qt@@@@1@Z @ 42 NONAME ; bool XQKeyCapture::captureKey(class QList<unsigned int>, class QFlags<enum Qt::KeyboardModifier>, class QFlags<enum Qt::KeyboardModifier>)
	?errorId@XQKeyCapture@@QBEHXZ @ 43 NONAME ; int XQKeyCapture::errorId(void) const
	?captureKey@XQKeyCapture@@QAE_NV?$QList@W4Key@Qt@@@@V?$QFlags@W4KeyboardModifier@Qt@@@@1@Z @ 44 NONAME ; bool XQKeyCapture::captureKey(class QList<enum Qt::Key>, class QFlags<enum Qt::KeyboardModifier>, class QFlags<enum Qt::KeyboardModifier>)
	?captureKeyUpAndDowns@XQKeyCapture@@QAE_NIV?$QFlags@W4KeyboardModifier@Qt@@@@0@Z @ 45 NONAME ; bool XQKeyCapture::captureKeyUpAndDowns(unsigned int, class QFlags<enum Qt::KeyboardModifier>, class QFlags<enum Qt::KeyboardModifier>)
	?cancelCaptureKeyUpAndDowns@XQKeyCapture@@QAE_NV?$QList@I@@V?$QFlags@W4KeyboardModifier@Qt@@@@1@Z @ 46 NONAME ; bool XQKeyCapture::cancelCaptureKeyUpAndDowns(class QList<unsigned int>, class QFlags<enum Qt::KeyboardModifier>, class QFlags<enum Qt::KeyboardModifier>)
	?cancelCaptureLongKey@XQKeyCapture@@QAE_NW4Key@Qt@@V?$QFlags@W4KeyboardModifier@Qt@@@@1W4LongFlags@1@@Z @ 47 NONAME ; bool XQKeyCapture::cancelCaptureLongKey(enum Qt::Key, class QFlags<enum Qt::KeyboardModifier>, class QFlags<enum Qt::KeyboardModifier>, enum XQKeyCapture::LongFlags)
	?captureKey@XQKeyCapture@@QAE_NW4Key@Qt@@V?$QFlags@W4KeyboardModifier@Qt@@@@1@Z @ 48 NONAME ; bool XQKeyCapture::captureKey(enum Qt::Key, class QFlags<enum Qt::KeyboardModifier>, class QFlags<enum Qt::KeyboardModifier>)
	?cancelCaptureLongKey@XQKeyCapture@@QAE_NV?$QList@W4Key@Qt@@@@V?$QFlags@W4KeyboardModifier@Qt@@@@1W4LongFlags@1@@Z @ 49 NONAME ; bool XQKeyCapture::cancelCaptureLongKey(class QList<enum Qt::Key>, class QFlags<enum Qt::KeyboardModifier>, class QFlags<enum Qt::KeyboardModifier>, enum XQKeyCapture::LongFlags)
	?captureKeyUpAndDowns@XQKeyCapture@@QAE_NV?$QList@W4Key@Qt@@@@V?$QFlags@W4KeyboardModifier@Qt@@@@1@Z @ 50 NONAME ; bool XQKeyCapture::captureKeyUpAndDowns(class QList<enum Qt::Key>, class QFlags<enum Qt::KeyboardModifier>, class QFlags<enum Qt::KeyboardModifier>)
	?captureKeyUpAndDowns@XQKeyCapture@@QAE_NV?$QList@I@@V?$QFlags@W4KeyboardModifier@Qt@@@@1@Z @ 51 NONAME ; bool XQKeyCapture::captureKeyUpAndDowns(class QList<unsigned int>, class QFlags<enum Qt::KeyboardModifier>, class QFlags<enum Qt::KeyboardModifier>)
	??1XQKeyCapture@@QAE@XZ @ 52 NONAME ; XQKeyCapture::~XQKeyCapture(void)
	?captureRemoteKeys@XQKeyCapture@@QAE_NV?$QFlags@W4CapturingFlag@XQKeyCapture@@@@@Z @ 53 NONAME ; bool XQKeyCapture::captureRemoteKeys(class QFlags<enum XQKeyCapture::CapturingFlag>)
	?cancelCaptureRemoteKeys@XQKeyCapture@@QAE_NV?$QFlags@W4CapturingFlag@XQKeyCapture@@@@@Z @ 54 NONAME ; bool XQKeyCapture::cancelCaptureRemoteKeys(class QFlags<enum XQKeyCapture::CapturingFlag>)
	?errorString@XQKeyCapture@@QBE?AVQString@@XZ @ 55 NONAME ; class QString XQKeyCapture::errorString(void) const
	?cancelCaptureLongKey@XQKeyCapture@@QAE_NV?$QList@I@@V?$QFlags@W4KeyboardModifier@Qt@@@@1W4LongFlags@1@@Z @ 56 NONAME ; bool XQKeyCapture::cancelCaptureLongKey(class QList<unsigned int>, class QFlags<enum Qt::KeyboardModifier>, class QFlags<enum Qt::KeyboardModifier>, enum XQKeyCapture::LongFlags)
	?cancelCaptureKeyUpAndDowns@XQKeyCapture@@QAE_NW4Key@Qt@@V?$QFlags@W4KeyboardModifier@Qt@@@@1@Z @ 57 NONAME ; bool XQKeyCapture::cancelCaptureKeyUpAndDowns(enum Qt::Key, class QFlags<enum Qt::KeyboardModifier>, class QFlags<enum Qt::KeyboardModifier>)
	?cancelCaptureLongKey@XQKeyCapture@@QAE_NIV?$QFlags@W4KeyboardModifier@Qt@@@@0W4LongFlags@1@@Z @ 58 NONAME ; bool XQKeyCapture::cancelCaptureLongKey(unsigned int, class QFlags<enum Qt::KeyboardModifier>, class QFlags<enum Qt::KeyboardModifier>, enum XQKeyCapture::LongFlags)
	?remoteEventType_KeyRelease@XQKeyCapture@@SA?AW4Type@QEvent@@XZ @ 59 NONAME ; enum QEvent::Type XQKeyCapture::remoteEventType_KeyRelease(void)
	?remoteEventType_KeyPress@XQKeyCapture@@SA?AW4Type@QEvent@@XZ @ 60 NONAME ; enum QEvent::Type XQKeyCapture::remoteEventType_KeyPress(void)

