EXPORTS
	?qByteArrayToS60Desc8@XQConversions@@SAPAVHBufC8@@ABVQByteArray@@@Z @ 1 NONAME ; class HBufC8 * XQConversions::qByteArrayToS60Desc8(class QByteArray const &)
	?simpleSoundsPath@XQUtils@@SA?AVQString@@XZ @ 2 NONAME ; class QString XQUtils::simpleSoundsPath(void)
	?tr@XQUtils@@SA?AVQString@@PBD0H@Z @ 3 NONAME ; class QString XQUtils::tr(char const *, char const *, int)
	?launchFile@XQUtils@@QAE_NABVQString@@@Z @ 4 NONAME ; bool XQUtils::launchFile(class QString const &)
	?s60DescToQString@XQConversions@@SA?AVQString@@ABVTDesC16@@@Z @ 5 NONAME ; class QString XQConversions::s60DescToQString(class TDesC16 const &)
	?othersPath@XQUtils@@SA?AVQString@@XZ @ 6 NONAME ; class QString XQUtils::othersPath(void)
	?romRootPath@XQUtils@@SA?AVQString@@XZ @ 7 NONAME ; class QString XQUtils::romRootPath(void)
	?soundsPath@XQUtils@@SA?AVQString@@XZ @ 8 NONAME ; class QString XQUtils::soundsPath(void)
	?resetInactivityTime@XQUtils@@QAEXXZ @ 9 NONAME ; void XQUtils::resetInactivityTime(void)
	??_EXQUtils@@UAE@I@Z @ 10 NONAME ; XQUtils::~XQUtils(unsigned int)
	?getStaticMetaObject@XQUtils@@SAABUQMetaObject@@XZ @ 11 NONAME ; struct QMetaObject const & XQUtils::getStaticMetaObject(void)
	?qStringToS60Desc@XQConversions@@SAPAVHBufC16@@ABVQString@@@Z @ 12 NONAME ; class HBufC16 * XQConversions::qStringToS60Desc(class QString const &)
	?mmsBackgroundImagesPath@XQUtils@@SA?AVQString@@XZ @ 13 NONAME ; class QString XQUtils::mmsBackgroundImagesPath(void)
	?s60Desc8ToQString@XQConversions@@SA?AVQString@@ABVTDesC8@@@Z @ 14 NONAME ; class QString XQConversions::s60Desc8ToQString(class TDesC8 const &)
	?imagesThumbnailPath@XQUtils@@SA?AVQString@@XZ @ 15 NONAME ; class QString XQUtils::imagesThumbnailPath(void)
	??1XQUtils@@UAE@XZ @ 16 NONAME ; XQUtils::~XQUtils(void)
	?metaObject@XQUtils@@UBEPBUQMetaObject@@XZ @ 17 NONAME ; struct QMetaObject const * XQUtils::metaObject(void) const
	?gamesPath@XQUtils@@SA?AVQString@@XZ @ 18 NONAME ; class QString XQUtils::gamesPath(void)
	?memoryCardContactsPath@XQUtils@@SA?AVQString@@XZ @ 19 NONAME ; class QString XQUtils::memoryCardContactsPath(void)
	?qStringToS60Desc8@XQConversions@@SAPAVHBufC8@@ABVQString@@@Z @ 20 NONAME ; class HBufC8 * XQConversions::qStringToS60Desc8(class QString const &)
	?gmsPicturesPath@XQUtils@@SA?AVQString@@XZ @ 21 NONAME ; class QString XQUtils::gmsPicturesPath(void)
	?memoryCardRootPath@XQUtils@@SA?AVQString@@XZ @ 22 NONAME ; class QString XQUtils::memoryCardRootPath(void)
	?staticMetaObject@XQUtils@@2UQMetaObject@@B @ 23 NONAME ; struct QMetaObject const XQUtils::staticMetaObject
	?phoneMemoryRootPath@XQUtils@@SA?AVQString@@XZ @ 24 NONAME ; class QString XQUtils::phoneMemoryRootPath(void)
	?qt_metacast@XQUtils@@UAEPAXPBD@Z @ 25 NONAME ; void * XQUtils::qt_metacast(char const *)
	?error@XQUtils@@QBE?AW4Error@1@XZ @ 26 NONAME ; enum XQUtils::Error XQUtils::error(void) const
	?imagesPath@XQUtils@@SA?AVQString@@XZ @ 27 NONAME ; class QString XQUtils::imagesPath(void)
	?s60Desc8ToQByteArray@XQConversions@@SA?AVQByteArray@@ABVTDesC8@@@Z @ 28 NONAME ; class QByteArray XQConversions::s60Desc8ToQByteArray(class TDesC8 const &)
	?trUtf8@XQUtils@@SA?AVQString@@PBD0H@Z @ 29 NONAME ; class QString XQUtils::trUtf8(char const *, char const *, int)
	?picturesPath@XQUtils@@SA?AVQString@@XZ @ 30 NONAME ; class QString XQUtils::picturesPath(void)
	?installsPath@XQUtils@@SA?AVQString@@XZ @ 31 NONAME ; class QString XQUtils::installsPath(void)
	?tr@XQUtils@@SA?AVQString@@PBD0@Z @ 32 NONAME ; class QString XQUtils::tr(char const *, char const *)
	??0XQUtils@@QAE@PAVQObject@@@Z @ 33 NONAME ; XQUtils::XQUtils(class QObject *)
	?digitalSoundsPath@XQUtils@@SA?AVQString@@XZ @ 34 NONAME ; class QString XQUtils::digitalSoundsPath(void)
	?presenceLogosPath@XQUtils@@SA?AVQString@@XZ @ 35 NONAME ; class QString XQUtils::presenceLogosPath(void)
	?trUtf8@XQUtils@@SA?AVQString@@PBD0@Z @ 36 NONAME ; class QString XQUtils::trUtf8(char const *, char const *)
	?videosPath@XQUtils@@SA?AVQString@@XZ @ 37 NONAME ; class QString XQUtils::videosPath(void)
	?qt_metacall@XQUtils@@UAEHW4Call@QMetaObject@@HPAPAX@Z @ 38 NONAME ; int XQUtils::qt_metacall(enum QMetaObject::Call, int, void * *)

