EXPORTS
	_ZN12XQPluginInfoC1ERKS_ @ 1 NONAME
	_ZN12XQPluginInfoC1EjjRK7QStringS2_ @ 2 NONAME
	_ZN12XQPluginInfoC1Ev @ 3 NONAME
	_ZN12XQPluginInfoC2ERKS_ @ 4 NONAME
	_ZN12XQPluginInfoC2EjjRK7QStringS2_ @ 5 NONAME
	_ZN12XQPluginInfoC2Ev @ 6 NONAME
	_ZN12XQPluginInfoD1Ev @ 7 NONAME
	_ZN12XQPluginInfoD2Ev @ 8 NONAME
	_ZN12XQPluginInfoaSERKS_ @ 9 NONAME
	_ZN14CPluginFactory14createQtPluginEv @ 10 NONAME
	_ZN14CPluginFactory4NewLEi @ 11 NONAME
	_ZN14CPluginFactoryD0Ev @ 12 NONAME
	_ZN14CPluginFactoryD1Ev @ 13 NONAME
	_ZN14CPluginFactoryD2Ev @ 14 NONAME
	_ZN14XQPluginLoader19listImplementationsERK7QStringR5QListI12XQPluginInfoE @ 15 NONAME
	_ZN14XQPluginLoader4loadEv @ 16 NONAME
	_ZN14XQPluginLoader6setUidEi @ 17 NONAME
	_ZN14XQPluginLoader6unloadEv @ 18 NONAME
	_ZN14XQPluginLoader8instanceEv @ 19 NONAME
	_ZN14XQPluginLoaderC1EP7QObject @ 20 NONAME
	_ZN14XQPluginLoaderC1EiP7QObject @ 21 NONAME
	_ZN14XQPluginLoaderC2EP7QObject @ 22 NONAME
	_ZN14XQPluginLoaderC2EiP7QObject @ 23 NONAME
	_ZN14XQPluginLoaderD0Ev @ 24 NONAME
	_ZN14XQPluginLoaderD1Ev @ 25 NONAME
	_ZN14XQPluginLoaderD2Ev @ 26 NONAME
	_ZNK12XQPluginInfo10opaqueDataEv @ 27 NONAME
	_ZNK12XQPluginInfo3uidEv @ 28 NONAME
	_ZNK12XQPluginInfo7dllNameEv @ 29 NONAME
	_ZNK12XQPluginInfo7versionEv @ 30 NONAME
	_ZNK14XQPluginLoader11errorStringEv @ 31 NONAME
	_ZNK14XQPluginLoader3uidEv @ 32 NONAME
	_ZNK14XQPluginLoader8isLoadedEv @ 33 NONAME
	_ZTI14CPluginFactory @ 34 NONAME
	_ZTI14XQPluginLoader @ 35 NONAME
	_ZTV14CPluginFactory @ 36 NONAME
	_ZTV14XQPluginLoader @ 37 NONAME

