EXPORTS
	_ZN10CCrDataSet4NewLEi @ 1 NONAME
	_ZN10CCrDataSet5NewLCEi @ 2 NONAME
	_ZN6CCrBer10ContentLenEv @ 3 NONAME
	_ZN6CCrBer10IndefiniteEv @ 4 NONAME
	_ZN6CCrBer10IsSeqOrSetEh @ 5 NONAME
	_ZN6CCrBer11GetBooleanLEv @ 6 NONAME
	_ZN6CCrBer11GetIntegerLEv @ 7 NONAME
	_ZN6CCrBer11GetUTCTimeLEv @ 8 NONAME
	_ZN6CCrBer11IsKnownTypeEh @ 9 NONAME
	_ZN6CCrBer11ObjectBeginEv @ 10 NONAME
	_ZN6CCrBer12ContentBeginEv @ 11 NONAME
	_ZN6CCrBer12GetSequenceLEv @ 12 NONAME
	_ZN6CCrBer12SetObjectLenEv @ 13 NONAME
	_ZN6CCrBer13GetIA5StringLEv @ 14 NONAME
	_ZN6CCrBer15AddToContentLenEi @ 15 NONAME
	_ZN6CCrBer15GetLongIntegerLEv @ 16 NONAME
	_ZN6CCrBer15GetOctetStringLER7CCrData @ 17 NONAME
	_ZN6CCrBer15GetOctetStringLEv @ 18 NONAME
	_ZN6CCrBer15GetPrintStringLEv @ 19 NONAME
	_ZN6CCrBer15GetVideoStringLEv @ 20 NONAME
	_ZN6CCrBer16FindEndOfContentEP7CCrData @ 21 NONAME
	_ZN6CCrBer17GetGeneralStringLEv @ 22 NONAME
	_ZN6CCrBer17GetNumericStringLEv @ 23 NONAME
	_ZN6CCrBer17GetVisibleStringLEv @ 24 NONAME
	_ZN6CCrBer18GetContentStringLCEv @ 25 NONAME
	_ZN6CCrBer18GetGraphicsStringLEv @ 26 NONAME
	_ZN6CCrBer18GetTeletextStringLEv @ 27 NONAME
	_ZN6CCrBer19GetGeneralizedTimeLEv @ 28 NONAME
	_ZN6CCrBer24OpenConstructedEncodingLER7CCrData @ 29 NONAME
	_ZN6CCrBer31OpenConstructedEncodingWithTagLEP7CCrDataRS_P6HBufC8 @ 30 NONAME
	_ZN6CCrBer4DataEv @ 31 NONAME
	_ZN6CCrBer4NewLEi @ 32 NONAME
	_ZN6CCrBer4ReadEP7CCrData @ 33 NONAME
	_ZN6CCrBer4TypeEv @ 34 NONAME
	_ZN6CCrBer5LevelEv @ 35 NONAME
	_ZN6CCrBer5NewLCEi @ 36 NONAME
	_ZN6CCrBer6LenLenEv @ 37 NONAME
	_ZN6CCrBer6ObjectEP6HBufC8 @ 38 NONAME
	_ZN6CCrBer7BufferLEP6HBufC8P7CCrDatajj @ 39 NONAME
	_ZN6CCrBer7BufferLEP7HBufC16P7CCrDatajh @ 40 NONAME
	_ZN6CCrBer7ContentEP6HBufC8 @ 41 NONAME
	_ZN6CCrBer7GetOidLEv @ 42 NONAME
	_ZN6CCrBer7ObjectLEP7HBufC16 @ 43 NONAME
	_ZN6CCrBer7ReadLenEP7CCrDataRiPh @ 44 NONAME
	_ZN6CCrBer8ContentLEP7HBufC16 @ 45 NONAME
	_ZN6CCrBer8ReadTypeEP7CCrData @ 46 NONAME
	_ZN6CCrBer8SetLevelEj @ 47 NONAME
	_ZN6CCrBer9ObjectLenEv @ 48 NONAME
	_ZN6CCrBerD0Ev @ 49 NONAME
	_ZN6CCrBerD1Ev @ 50 NONAME
	_ZN6CCrBerD2Ev @ 51 NONAME
	_ZN7CCrData4NewLEi @ 52 NONAME
	_ZN7CCrData4OpenER3RFsRK7TDesC16j @ 53 NONAME
	_ZN7CCrData4OpenER3RFsj @ 54 NONAME
	_ZN7CCrData4PathEv @ 55 NONAME
	_ZN7CCrData4ReadER5TDes8 @ 56 NONAME
	_ZN7CCrData4ReadER5TDes8i @ 57 NONAME
	_ZN7CCrData4ReadEiR5TDes8i @ 58 NONAME
	_ZN7CCrData4SeekE5TSeekRi @ 59 NONAME
	_ZN7CCrData4SizeERi @ 60 NONAME
	_ZN7CCrData4ZeroEii @ 61 NONAME
	_ZN7CCrData5CloseEv @ 62 NONAME
	_ZN7CCrData5LineLER5TDes8 @ 63 NONAME
	_ZN7CCrData5NewLCEi @ 64 NONAME
	_ZN7CCrData5WriteERK6TDesC8 @ 65 NONAME
	_ZN7CCrData5WriteERK6TDesC8i @ 66 NONAME
	_ZN7CCrData6DeleteEii @ 67 NONAME
	_ZN7CCrData6IsFileEv @ 68 NONAME
	_ZN7CCrData7ReplaceER3RFsRK7TDesC16j @ 69 NONAME
	_ZN7CCrData8SetPathLERK7TDesC16 @ 70 NONAME
	_ZN9CCrBerSet10CreateEndLEv @ 71 NONAME
	_ZN9CCrBerSet10CreateIA5LER6TDesC8 @ 72 NONAME
	_ZN9CCrBerSet10CreateIntLEi @ 73 NONAME
	_ZN9CCrBerSet10CreateOIdLER6TDesC8 @ 74 NONAME
	_ZN9CCrBerSet10CreateT61LER6TDesC8 @ 75 NONAME
	_ZN9CCrBerSet10CreateUTCLER6TDesC8 @ 76 NONAME
	_ZN9CCrBerSet11CreateBoolLEi @ 77 NONAME
	_ZN9CCrBerSet11CreateNullLEv @ 78 NONAME
	_ZN9CCrBerSet12CreateOctetLEP7CCrData @ 79 NONAME
	_ZN9CCrBerSet12CreateOctetLER6TDesC8 @ 80 NONAME
	_ZN9CCrBerSet14CreateGenTimeLER6TDesC8 @ 81 NONAME
	_ZN9CCrBerSet14CreateGeneralLER6TDesC8 @ 82 NONAME
	_ZN9CCrBerSet14CreateLongIntLER8RInteger @ 83 NONAME
	_ZN9CCrBerSet14CreateNumericLER6TDesC8 @ 84 NONAME
	_ZN9CCrBerSet14CreateVisibleLER6TDesC8 @ 85 NONAME
	_ZN9CCrBerSet15CreateSeqStartLEi @ 86 NONAME
	_ZN9CCrBerSet15CreateSetStartLEi @ 87 NONAME
	_ZN9CCrBerSet15CreateVideoTexLER6TDesC8 @ 88 NONAME
	_ZN9CCrBerSet16AppendAndUpdateLEP6CCrBer @ 89 NONAME
	_ZN9CCrBerSet16CreateGraphicalLER6TDesC8 @ 90 NONAME
	_ZN9CCrBerSet16CreatePrintableLER6TDesC8 @ 91 NONAME
	_ZN9CCrBerSet17CloseLastSeqOrSetEj @ 92 NONAME
	_ZN9CCrBerSet23CreateBEREncodedObjectLER6TDesC8 @ 93 NONAME
	_ZN9CCrBerSet23CreateConstructedStartLEhi @ 94 NONAME
	_ZN9CCrBerSet4NewLEi @ 95 NONAME
	_ZN9CCrBerSet5NewLCEi @ 96 NONAME
	_ZN9CCrBerSet5OpenLEP7CCrDatah @ 97 NONAME
	_ZN9CCrBerSet6FlushLEP7CCrData @ 98 NONAME
	_ZN9CCrBerSet6UpdateEP6CCrBer @ 99 NONAME
	_ZTI10CCrDataSet @ 100 NONAME ; #<TI>#
	_ZTI9CCrBerSet @ 101 NONAME ; #<TI>#
	_ZTV10CCrDataSet @ 102 NONAME ; #<VT>#
	_ZTV9CCrBerSet @ 103 NONAME ; #<VT>#

