EXPORTS
	_Z4DumpRK11TLiwVariant @ 1 NONAME
	_ZN11TLiwVariant3SetEPK10CLiwBuffer @ 2 NONAME
	_ZN11TLiwVariant3SetEPK12CLiwIterable @ 3 NONAME
	_ZN11TLiwVariant3SetEPK13MLiwInterface @ 4 NONAME
	_ZN11TLiwVariant3SetEPK7CLiwMap @ 5 NONAME
	_ZN11TLiwVariant3SetEPK8CLiwList @ 6 NONAME
	_ZN11TLiwVariant3SetERK4TUid @ 7 NONAME
	_ZN11TLiwVariant3SetERK5RFile @ 8 NONAME
	_ZN11TLiwVariant3SetERK5TTime @ 9 NONAME
	_ZN11TLiwVariant3SetERK6TDesC8 @ 10 NONAME
	_ZN11TLiwVariant3SetERK7TDesC16 @ 11 NONAME
	_ZN11TLiwVariant3SetEd @ 12 NONAME
	_ZN11TLiwVariant3SetEi @ 13 NONAME
	_ZN11TLiwVariant3SetEj @ 14 NONAME
	_ZN11TLiwVariant3SetEl @ 15 NONAME
	_ZN11TLiwVariant4SetLERKS_ @ 16 NONAME
	_ZN11TLiwVariant5ResetEv @ 17 NONAME
	_ZN11TLiwVariantC1ERKS_ @ 18 NONAME
	_ZN11TLiwVariantC2ERKS_ @ 19 NONAME
	_ZN11TLiwVariantaSERKS_ @ 20 NONAME
	_ZN12CLiwIterableeqERS_ @ 21 NONAME
	_ZN12CLiwMenuPane12AddMenuItemLEiRN16CEikMenuPaneItem5SDataEi @ 22 NONAME
	_ZN12CLiwMenuPane12AddMenuItemLEiRN16CEikMenuPaneItem5SDataEiRK7TDesC16 @ 23 NONAME
	_ZN12CLiwMenuPane13AddMenuItemsLER15TResourceReaderiii @ 24 NONAME
	_ZN12CLiwMenuPane13AddMenuItemsLER4TBufILi256EEiiii @ 25 NONAME
	_ZN12CLiwMenuPane13AddTitleItemLERK7TDesC16i @ 26 NONAME
	_ZN12CLiwMenuPaneC1ER12CEikMenuPanei @ 27 NONAME
	_ZN12CLiwMenuPaneC2ER12CEikMenuPanei @ 28 NONAME
	_ZN12CLiwMenuPaneD0Ev @ 29 NONAME
	_ZN12CLiwMenuPaneD1Ev @ 30 NONAME
	_ZN12CLiwMenuPaneD2Ev @ 31 NONAME
	_ZN13CLiwContainerD0Ev @ 32 NONAME
	_ZN13CLiwContainerD1Ev @ 33 NONAME
	_ZN13CLiwContainerD2Ev @ 34 NONAME
	_ZN14CLiwDefaultMap4NewLEv @ 35 NONAME
	_ZN14CLiwDefaultMap5NewLCER11RReadStream @ 36 NONAME
	_ZN14CLiwDefaultMap6RemoveERK6TDesC8 @ 37 NONAME
	_ZN14CLiwDefaultMap7InsertLERK6TDesC8RK11TLiwVariant @ 38 NONAME
	_ZN14CLiwDefaultMapD0Ev @ 39 NONAME
	_ZN14CLiwDefaultMapD1Ev @ 40 NONAME
	_ZN14CLiwDefaultMapD2Ev @ 41 NONAME
	_ZN15CLiwDefaultList4NewLEv @ 42 NONAME
	_ZN15CLiwDefaultList5NewLCER11RReadStream @ 43 NONAME
	_ZN15CLiwDefaultList6RemoveEi @ 44 NONAME
	_ZN15CLiwDefaultList7AppendLERK11TLiwVariant @ 45 NONAME
	_ZN15CLiwDefaultListD0Ev @ 46 NONAME
	_ZN15CLiwDefaultListD1Ev @ 47 NONAME
	_ZN15CLiwDefaultListD2Ev @ 48 NONAME
	_ZN16CLiwCriteriaItem10SetOptionsEj @ 49 NONAME
	_ZN16CLiwCriteriaItem13SetServiceCmdEi @ 50 NONAME
	_ZN16CLiwCriteriaItem14SetServiceCmdLERK6TDesC8 @ 51 NONAME
	_ZN16CLiwCriteriaItem15SetContentTypeLERK6TDesC8 @ 52 NONAME
	_ZN16CLiwCriteriaItem15SetMaxProvidersEi @ 53 NONAME
	_ZN16CLiwCriteriaItem15SetServiceClassERK4TUid @ 54 NONAME
	_ZN16CLiwCriteriaItem16ReadFromResoureLER15TResourceReader @ 55 NONAME
	_ZN16CLiwCriteriaItem18SetDefaultProviderEi @ 56 NONAME
	_ZN16CLiwCriteriaItem18SetMetaDataOptionsERK11TLiwVariant @ 57 NONAME
	_ZN16CLiwCriteriaItem4NewLEiRK6TDesC8S2_ @ 58 NONAME
	_ZN16CLiwCriteriaItem4NewLEiiRK6TDesC8 @ 59 NONAME
	_ZN16CLiwCriteriaItem4NewLEv @ 60 NONAME
	_ZN16CLiwCriteriaItem5NewLCEiRK6TDesC8S2_ @ 61 NONAME
	_ZN16CLiwCriteriaItem5NewLCEiiRK6TDesC8 @ 62 NONAME
	_ZN16CLiwCriteriaItem5NewLCEv @ 63 NONAME
	_ZN16CLiwCriteriaItem5SetIdEi @ 64 NONAME
	_ZN16CLiwCriteriaItemD0Ev @ 65 NONAME
	_ZN16CLiwCriteriaItemD1Ev @ 66 NONAME
	_ZN16CLiwCriteriaItemD2Ev @ 67 NONAME
	_ZN16CLiwCriteriaItemeqERKS_ @ 68 NONAME
	_ZN17CLiwServiceIfBase18ExtensionInterfaceE4TUid @ 69 NONAME
	_ZN17CLiwServiceIfBaseD0Ev @ 70 NONAME
	_ZN17CLiwServiceIfBaseD1Ev @ 71 NONAME
	_ZN17CLiwServiceIfBaseD2Ev @ 72 NONAME
	_ZN17CLiwServiceIfMenu18ExtensionInterfaceE4TUid @ 73 NONAME
	_ZN17CLiwServiceIfMenuD0Ev @ 74 NONAME
	_ZN17CLiwServiceIfMenuD1Ev @ 75 NONAME
	_ZN17CLiwServiceIfMenuD2Ev @ 76 NONAME
	_ZN18CLiwServiceHandler10DetachMenuEii @ 77 NONAME
	_ZN18CLiwServiceHandler11AttachMenuLER6RArrayIiEiR13RPointerArrayI16CLiwCriteriaItemE @ 78 NONAME
	_ZN18CLiwServiceHandler11AttachMenuLEiR15TResourceReader @ 79 NONAME
	_ZN18CLiwServiceHandler11AttachMenuLEiRK13RPointerArrayI16CLiwCriteriaItemE @ 80 NONAME
	_ZN18CLiwServiceHandler11AttachMenuLEii @ 81 NONAME
	_ZN18CLiwServiceHandler11GetCriteriaEi @ 82 NONAME
	_ZN18CLiwServiceHandler11GetInterestER13RPointerArrayI16CLiwCriteriaItemE @ 83 NONAME
	_ZN18CLiwServiceHandler12InParamListLEv @ 84 NONAME
	_ZN18CLiwServiceHandler13OutParamListLEv @ 85 NONAME
	_ZN18CLiwServiceHandler14HandleSubmenuLER12CEikMenuPane @ 86 NONAME
	_ZN18CLiwServiceHandler14IsSubMenuEmptyEi @ 87 NONAME
	_ZN18CLiwServiceHandler14NbrOfProvidersEPK16CLiwCriteriaItem @ 88 NONAME
	_ZN18CLiwServiceHandler15ExecuteMenuCmdLEiRK20CLiwGenericParamListRS0_jP18MLiwNotifyCallback @ 89 NONAME
	_ZN18CLiwServiceHandler16ReportMenuLaunchEv @ 90 NONAME
	_ZN18CLiwServiceHandler18ExecuteServiceCmdLERK16CLiwCriteriaItemRK20CLiwGenericParamListRS3_jP18MLiwNotifyCallback @ 91 NONAME
	_ZN18CLiwServiceHandler18ExecuteServiceCmdLERKiRK20CLiwGenericParamListRS2_jP18MLiwNotifyCallback @ 92 NONAME
	_ZN18CLiwServiceHandler19InitializeMenuPaneLER12CEikMenuPaneiiRK20CLiwGenericParamList @ 93 NONAME
	_ZN18CLiwServiceHandler19InitializeMenuPaneLER12CEikMenuPaneiiRK20CLiwGenericParamListi @ 94 NONAME
	_ZN18CLiwServiceHandler20QueryImplementationLER13RPointerArrayI16CLiwCriteriaItemES3_ @ 95 NONAME
	_ZN18CLiwServiceHandler4NewLEv @ 96 NONAME
	_ZN18CLiwServiceHandler5NewLCEv @ 97 NONAME
	_ZN18CLiwServiceHandler5ResetEv @ 98 NONAME
	_ZN18CLiwServiceHandler7AttachLERK13RPointerArrayI16CLiwCriteriaItemE @ 99 NONAME
	_ZN18CLiwServiceHandler7AttachLERK13RPointerArrayI16CLiwCriteriaItemER22CRTSecMgrScriptSession @ 100 NONAME
	_ZN18CLiwServiceHandler7AttachLEi @ 101 NONAME
	_ZN18CLiwServiceHandler7DetachLERK13RPointerArrayI16CLiwCriteriaItemE @ 102 NONAME
	_ZN18CLiwServiceHandler7DetachLEi @ 103 NONAME
	_ZN18CLiwServiceHandler9IsLiwMenuEi @ 104 NONAME
	_ZN18CLiwServiceHandlerD0Ev @ 105 NONAME
	_ZN18CLiwServiceHandlerD1Ev @ 106 NONAME
	_ZN18CLiwServiceHandlerD2Ev @ 107 NONAME
	_ZN18MLiwNotifyCallback16GetTransactionIDEv @ 108 NONAME
	_ZN20CLiwGenericParamList12InternalizeLER11RReadStream @ 109 NONAME
	_ZN20CLiwGenericParamList14PackForServerLER8TIpcArgs @ 110 NONAME
	_ZN20CLiwGenericParamList17UnpackFromClientLERK9RMessage2 @ 111 NONAME
	_ZN20CLiwGenericParamList4NewLER11RReadStream @ 112 NONAME
	_ZN20CLiwGenericParamList4NewLEv @ 113 NONAME
	_ZN20CLiwGenericParamList5NewLCER11RReadStream @ 114 NONAME
	_ZN20CLiwGenericParamList5NewLCEv @ 115 NONAME
	_ZN20CLiwGenericParamList5ResetEv @ 116 NONAME
	_ZN20CLiwGenericParamList6RemoveERK6TDesC8 @ 117 NONAME
	_ZN20CLiwGenericParamList6RemoveEi @ 118 NONAME
	_ZN20CLiwGenericParamList7AppendLERK16TLiwGenericParam @ 119 NONAME
	_ZN20CLiwGenericParamList7AppendLERKS_ @ 120 NONAME
	_ZNK11TLiwVariant10AsIterableEv @ 121 NONAME
	_ZNK11TLiwVariant11AsInterfaceEv @ 122 NONAME
	_ZNK11TLiwVariant12AsFileHandleEv @ 123 NONAME
	_ZNK11TLiwVariant3GetER4TUid @ 124 NONAME
	_ZNK11TLiwVariant3GetER5RFile @ 125 NONAME
	_ZNK11TLiwVariant3GetER5TDes8 @ 126 NONAME
	_ZNK11TLiwVariant3GetER5TTime @ 127 NONAME
	_ZNK11TLiwVariant3GetER6TDes16 @ 128 NONAME
	_ZNK11TLiwVariant3GetER6TPtrC8 @ 129 NONAME
	_ZNK11TLiwVariant3GetER7CLiwMap @ 130 NONAME
	_ZNK11TLiwVariant3GetER7TPtrC16 @ 131 NONAME
	_ZNK11TLiwVariant3GetER8CLiwList @ 132 NONAME
	_ZNK11TLiwVariant3GetERd @ 133 NONAME
	_ZNK11TLiwVariant3GetERi @ 134 NONAME
	_ZNK11TLiwVariant3GetERj @ 135 NONAME
	_ZNK11TLiwVariant3GetERl @ 136 NONAME
	_ZNK11TLiwVariant5AsDesEv @ 137 NONAME
	_ZNK11TLiwVariant5AsMapEv @ 138 NONAME
	_ZNK11TLiwVariant6AsDataEv @ 139 NONAME
	_ZNK11TLiwVariant6AsListEv @ 140 NONAME
	_ZNK11TLiwVariant6AsTUidEv @ 141 NONAME
	_ZNK11TLiwVariant7AsTBoolEv @ 142 NONAME
	_ZNK11TLiwVariant7AsTRealEv @ 143 NONAME
	_ZNK11TLiwVariant7AsTTimeEv @ 144 NONAME
	_ZNK11TLiwVariant7AsTUintEv @ 145 NONAME
	_ZNK11TLiwVariant8AsBufferEv @ 146 NONAME
	_ZNK11TLiwVariant8AsTInt32Ev @ 147 NONAME
	_ZNK12CLiwMenuPane12ServiceCmdIdEi @ 148 NONAME
	_ZNK12CLiwMenuPane8DynCmdIdEi @ 149 NONAME
	_ZNK12CLiwMenuPane9MenuCmdIdEi @ 150 NONAME
	_ZNK13CLiwContainer12ExternalizeLER12RWriteStream @ 151 NONAME
	_ZNK13CLiwContainer4SizeEv @ 152 NONAME
	_ZNK14CLiwDefaultMap12ExternalizeLER12RWriteStream @ 153 NONAME
	_ZNK14CLiwDefaultMap3AtLEi @ 154 NONAME
	_ZNK14CLiwDefaultMap3AtLEiR5TDes8 @ 155 NONAME
	_ZNK14CLiwDefaultMap4SizeEv @ 156 NONAME
	_ZNK14CLiwDefaultMap5CountEv @ 157 NONAME
	_ZNK14CLiwDefaultMap5FindLERK6TDesC8R11TLiwVariant @ 158 NONAME
	_ZNK15CLiwDefaultList12ExternalizeLER12RWriteStream @ 159 NONAME
	_ZNK15CLiwDefaultList3AtLEiR11TLiwVariant @ 160 NONAME
	_ZNK15CLiwDefaultList4SizeEv @ 161 NONAME
	_ZNK15CLiwDefaultList5CountEv @ 162 NONAME
	_ZNK16CLiwCriteriaItem10ServiceCmdEv @ 163 NONAME
	_ZNK16CLiwCriteriaItem11ContentTypeEv @ 164 NONAME
	_ZNK16CLiwCriteriaItem12MaxProvidersEv @ 165 NONAME
	_ZNK16CLiwCriteriaItem12ServiceClassEv @ 166 NONAME
	_ZNK16CLiwCriteriaItem13ServiceCmdStrEv @ 167 NONAME
	_ZNK16CLiwCriteriaItem15DefaultProviderEv @ 168 NONAME
	_ZNK16CLiwCriteriaItem18GetMetaDataOptionsER11TLiwVariant @ 169 NONAME
	_ZNK16CLiwCriteriaItem2IdEv @ 170 NONAME
	_ZNK16CLiwCriteriaItem7OptionsEv @ 171 NONAME
	_ZNK17CLiwServiceIfMenu8MenuPaneEv @ 172 NONAME
	_ZNK18CLiwServiceHandler19ServiceCmdByMenuCmdEi @ 173 NONAME
	_ZNK18CLiwServiceHandler9MenuCmdIdEi @ 174 NONAME
	_ZNK20CLiwGenericParamList12ExternalizeLER12RWriteStream @ 175 NONAME
	_ZNK20CLiwGenericParamList3AtLEiR16TLiwGenericParam @ 176 NONAME
	_ZNK20CLiwGenericParamList4SizeEv @ 177 NONAME
	_ZNK20CLiwGenericParamList5CountEiN3LIW14TVariantTypeIdE @ 178 NONAME
	_ZNK20CLiwGenericParamList5CountEv @ 179 NONAME
	_ZNK20CLiwGenericParamList8FindNextERiRK6TDesC8N3LIW14TVariantTypeIdE @ 180 NONAME
	_ZNK20CLiwGenericParamList8FindNextERiiN3LIW14TVariantTypeIdE @ 181 NONAME
	_ZNK20CLiwGenericParamList9FindFirstERiRK6TDesC8N3LIW14TVariantTypeIdE @ 182 NONAME
	_ZNK20CLiwGenericParamList9FindFirstERiiN3LIW14TVariantTypeIdE @ 183 NONAME
	_ZNK20CLiwGenericParamListixEi @ 184 NONAME
	_ZNK7CLiwMapeqERKS_ @ 185 NONAME
	_ZNK8CLiwListeqERKS_ @ 186 NONAME
	_ZTI12CLiwIterable @ 187 NONAME ; #<TI>#
	_ZTI12CLiwMenuPane @ 188 NONAME ; #<TI>#
	_ZTI13CLiwContainer @ 189 NONAME ; #<TI>#
	_ZTI14CLiwDefaultMap @ 190 NONAME ; #<TI>#
	_ZTI14CLiwXmlHandler @ 191 NONAME ; #<TI>#
	_ZTI15CLiwDefaultList @ 192 NONAME ; #<TI>#
	_ZTI15CLiwEcomMonitor @ 193 NONAME ; #<TI>#
	_ZTI15CLiwServiceData @ 194 NONAME ; #<TI>#
	_ZTI16CLiwCriteriaItem @ 195 NONAME ; #<TI>#
	_ZTI17CLiwServiceIfBase @ 196 NONAME ; #<TI>#
	_ZTI17CLiwServiceIfMenu @ 197 NONAME ; #<TI>#
	_ZTI7CLiwMap @ 198 NONAME ; #<TI>#
	_ZTI8CLiwList @ 199 NONAME ; #<TI>#
	_ZTV12CLiwIterable @ 200 NONAME ; #<VT>#
	_ZTV12CLiwMenuPane @ 201 NONAME ; #<VT>#
	_ZTV13CLiwContainer @ 202 NONAME ; #<VT>#
	_ZTV14CLiwDefaultMap @ 203 NONAME ; #<VT>#
	_ZTV14CLiwXmlHandler @ 204 NONAME ; #<VT>#
	_ZTV15CLiwDefaultList @ 205 NONAME ; #<VT>#
	_ZTV15CLiwEcomMonitor @ 206 NONAME ; #<VT>#
	_ZTV15CLiwServiceData @ 207 NONAME ; #<VT>#
	_ZTV16CLiwCriteriaItem @ 208 NONAME ; #<VT>#
	_ZTV17CLiwServiceIfBase @ 209 NONAME ; #<VT>#
	_ZTV17CLiwServiceIfMenu @ 210 NONAME ; #<VT>#
	_ZTV7CLiwMap @ 211 NONAME ; #<VT>#
	_ZTV8CLiwList @ 212 NONAME ; #<VT>#
	_ZeqRK11TLiwVariantS1_ @ 213 NONAME
	_ZeqRK16TLiwGenericParamS1_ @ 214 NONAME
	_ZN11TLiwVariant14VariantCleanupEPv @ 215 NONAME
	_ZN13CLiwContainer5CloseEv @ 216 NONAME
	_ZN16TLiwGenericParam12ParamCleanupEPv @ 217 NONAME
	_ZN11TLiwVariant5PushLEv @ 218 NONAME
	_ZN14CLiwDefaultMap5NewLCEv @ 219 NONAME
	_ZN15CLiwDefaultList5NewLCEv @ 220 NONAME
	_ZN13CLiwContainer5PushLEv @ 221 NONAME
	_ZN16TLiwGenericParam5PushLEv @ 222 NONAME
	_ZN11TLiwVariant3SetEx @ 223 NONAME
	_ZNK11TLiwVariant3GetERx @ 224 NONAME
	_ZNK11TLiwVariant8AsTInt64Ev @ 225 NONAME

