EXPORTS
	?Unit@CField@@QBEHXZ @ 1 NONAME ; int CField::Unit(void) const
	?IsInReport@CField@@QBEHH@Z @ 2 NONAME ; int CField::IsInReport(int) const
	?NewLC@CGenericHid@@SAPAV1@PAVMTransportLayer@@@Z @ 3 NONAME ; class CGenericHid * CGenericHid::NewLC(class MTransportLayer *)
	?UsageMax@CField@@QBEHXZ @ 4 NONAME ; int CField::UsageMax(void) const
	?UnitExponent@CField@@QBEHXZ @ 5 NONAME ; int CField::UnitExponent(void) const
	?StringMin@CField@@QBEHXZ @ 6 NONAME ; int CField::StringMin(void) const
	?NewL@CHidDriver@@SAPAV1@VTUid@@PAVMDriverAccess@@@Z @ 7 NONAME ; class CHidDriver * CHidDriver::NewL(class TUid, class MDriverAccess *)
	?SetOffset@CField@@QAEXH@Z @ 8 NONAME ; void CField::SetOffset(int)
	?NewLC@CParser@@SAPAV1@XZ @ 9 NONAME ; class CParser * CParser::NewLC(void)
	?SetStringRange@CField@@QAEXHH@Z @ 10 NONAME ; void CField::SetStringRange(int, int)
	?ReportSizeBytes@CReportRoot@@QBEHHW4TType@CField@@@Z @ 11 NONAME ; int CReportRoot::ReportSizeBytes(int, enum CField::TType) const
	?ClearUsageList@CField@@QAEXXZ @ 12 NONAME ; void CField::ClearUsageList(void)
	?IsNamedArray@CCollection@@QBEHXZ @ 13 NONAME ; int CCollection::IsNamedArray(void) const
	?SetUnitExponent@CField@@QAEXH@Z @ 14 NONAME ; void CField::SetUnitExponent(int)
	?SetAttributes@CField@@QAEXK@Z @ 15 NONAME ; void CField::SetAttributes(unsigned long)
	?SetPhysicalMin@CField@@QAEXH@Z @ 16 NONAME ; void CField::SetPhysicalMin(int)
	?SetUsagePage@CField@@QAEXH@Z @ 17 NONAME ; void CField::SetUsagePage(int)
	?SetStringMin@CField@@QAEXH@Z @ 18 NONAME ; void CField::SetStringMin(int)
	?CollectionByIndex@CCollection@@QBEPBV1@H@Z @ 19 NONAME ; class CCollection const * CCollection::CollectionByIndex(int) const
	?FieldByIndex@CCollection@@QBEPBVCField@@H@Z @ 20 NONAME ; class CField const * CCollection::FieldByIndex(int) const
	?SetPhysicalRange@CField@@QAEXHH@Z @ 21 NONAME ; void CField::SetPhysicalRange(int, int)
	?SetDesignatorRange@CField@@QAEXHH@Z @ 22 NONAME ; void CField::SetDesignatorRange(int, int)
	?CollectionCount@CCollection@@QBEHXZ @ 23 NONAME ; int CCollection::CollectionCount(void) const
	?NewLC@CReportGenerator@@SAPAV1@PBVCReportRoot@@HW4TType@CField@@@Z @ 24 NONAME ; class CReportGenerator * CReportGenerator::NewLC(class CReportRoot const *, int, enum CField::TType)
	?IsInput@CField@@QBEHXZ @ 25 NONAME ; int CField::IsInput(void) const
	?StringMax@CField@@QBEHXZ @ 26 NONAME ; int CField::StringMax(void) const
	?SetLogicalMin@CField@@QAEXH@Z @ 27 NONAME ; void CField::SetLogicalMin(int)
	?GetUsageId@TReportTranslator@@QBEHAAHH@Z @ 28 NONAME ; int TReportTranslator::GetUsageId(int &, int) const
	?SearchL@THidFieldSearch@@QAEXPBVCReportRoot@@PAVMHidFieldFinder@@@Z @ 29 NONAME ; void THidFieldSearch::SearchL(class CReportRoot const *, class MHidFieldFinder *)
	?IsConstant@CField@@QBEHXZ @ 30 NONAME ; int CField::IsConstant(void) const
	?PhysicalMin@CField@@QBEHXZ @ 31 NONAME ; int CField::PhysicalMin(void) const
	?ParseL@CParser@@QAEPAVCReportRoot@@ABVTDesC8@@@Z @ 32 NONAME ; class CReportRoot * CParser::ParseL(class TDesC8 const &)
	?AddUsageL@CField@@QAEXH@Z @ 33 NONAME ; void CField::AddUsageL(int)
	?Count@CField@@QBEHXZ @ 34 NONAME ; int CField::Count(void) const
	?SetSize@CField@@QAEXH@Z @ 35 NONAME ; void CField::SetSize(int)
	??0TReportTranslator@@QAE@ABVTDesC8@@PBVCField@@@Z @ 36 NONAME ; TReportTranslator::TReportTranslator(class TDesC8 const &, class CField const *)
	?ReportId@CField@@QBEHXZ @ 37 NONAME ; int CField::ReportId(void) const
	?IsArray@CField@@QBEHXZ @ 38 NONAME ; int CField::IsArray(void) const
	?SetPhysicalMax@CField@@QAEXH@Z @ 39 NONAME ; void CField::SetPhysicalMax(int)
	?NewL@CGenericHid@@SAPAV1@PAVMTransportLayer@@@Z @ 40 NONAME ; class CGenericHid * CGenericHid::NewL(class MTransportLayer *)
	?HasUsage@CField@@QBEHH@Z @ 41 NONAME ; int CField::HasUsage(int) const
	?SetStringMax@CField@@QAEXH@Z @ 42 NONAME ; void CField::SetStringMax(int)
	?IsFeature@CField@@QBEHXZ @ 43 NONAME ; int CField::IsFeature(void) const
	?StringIndex@CField@@QBEHXZ @ 44 NONAME ; int CField::StringIndex(void) const
	?Report@CReportGenerator@@QAE?AVTPtr8@@XZ @ 45 NONAME ; class TPtr8 CReportGenerator::Report(void)
	??0CHidDriver@@IAE@XZ @ 46 NONAME ; CHidDriver::CHidDriver(void)
	?AllowedToHandleEvent@CHidInputDataHandlingReg@@QAEHHH@Z @ 47 NONAME ; int CHidInputDataHandlingReg::AllowedToHandleEvent(int, int)
	?UsageIdL@TReportTranslator@@QBEHH@Z @ 48 NONAME ; int TReportTranslator::UsageIdL(int) const
	?SetLogicalMax@CField@@QAEXH@Z @ 49 NONAME ; void CField::SetLogicalMax(int)
	?IsOutput@CField@@QBEHXZ @ 50 NONAME ; int CField::IsOutput(void) const
	?Usage@CCollection@@QBEHXZ @ 51 NONAME ; int CCollection::Usage(void) const
	?SetUnit@CField@@QAEXH@Z @ 52 NONAME ; void CField::SetUnit(int)
	?PhysicalMax@CField@@QBEHXZ @ 53 NONAME ; int CField::PhysicalMax(void) const
	?IsData@CField@@QBEHXZ @ 54 NONAME ; int CField::IsData(void) const
	?SetUsageRange@CField@@QAEXHH@Z @ 55 NONAME ; void CField::SetUsageRange(int, int)
	?DesignatorIndex@CField@@QBEHXZ @ 56 NONAME ; int CField::DesignatorIndex(void) const
	?IsApplication@CCollection@@QBEHXZ @ 57 NONAME ; int CCollection::IsApplication(void) const
	?LogicalMin@CField@@QBEHXZ @ 58 NONAME ; int CField::LogicalMin(void) const
	?DesignatorMin@CField@@QBEHXZ @ 59 NONAME ; int CField::DesignatorMin(void) const
	?RawValueL@TReportTranslator@@QBEHH@Z @ 60 NONAME ; int TReportTranslator::RawValueL(int) const
	?SetDesignatorIndex@CField@@QAEXH@Z @ 61 NONAME ; void CField::SetDesignatorIndex(int)
	?AddHandledEvent@CHidInputDataHandlingReg@@QAEXHH@Z @ 62 NONAME ; void CHidInputDataHandlingReg::AddHandledEvent(int, int)
	?Type@CField@@QBE?AW4TType@1@XZ @ 63 NONAME ; enum CField::TType CField::Type(void) const
	?Attributes@CField@@QBEKXZ @ 64 NONAME ; unsigned long CField::Attributes(void) const
	?IsReport@CCollection@@QBEHXZ @ 65 NONAME ; int CCollection::IsReport(void) const
	?IsUsageModifier@CCollection@@QBEHXZ @ 66 NONAME ; int CCollection::IsUsageModifier(void) const
	?LastUsage@CField@@QBEHXZ @ 67 NONAME ; int CField::LastUsage(void) const
	?SetUsageMin@CField@@QAEXH@Z @ 68 NONAME ; void CField::SetUsageMin(int)
	?IsUsageSwitch@CCollection@@QBEHXZ @ 69 NONAME ; int CCollection::IsUsageSwitch(void) const
	?Size@CField@@QBEHXZ @ 70 NONAME ; int CField::Size(void) const
	?IsLogical@CCollection@@QBEHXZ @ 71 NONAME ; int CCollection::IsLogical(void) const
	?FieldCount@CCollection@@QBEHXZ @ 72 NONAME ; int CCollection::FieldCount(void) const
	?SetField@CReportGenerator@@QAEHPBVCField@@HHH@Z @ 73 NONAME ; int CReportGenerator::SetField(class CField const *, int, int, int)
	?IsPhysical@CCollection@@QBEHXZ @ 74 NONAME ; int CCollection::IsPhysical(void) const
	?LogicalMax@CField@@QBEHXZ @ 75 NONAME ; int CField::LogicalMax(void) const
	?SetDesignatorMin@CField@@QAEXH@Z @ 76 NONAME ; void CField::SetDesignatorMin(int)
	?DesignatorMax@CField@@QBEHXZ @ 77 NONAME ; int CField::DesignatorMax(void) const
	?Type@CCollection@@QBEKXZ @ 78 NONAME ; unsigned long CCollection::Type(void) const
	?Count@TReportTranslator@@QBEHXZ @ 79 NONAME ; int TReportTranslator::Count(void) const
	?GetValue@TReportTranslator@@QBEHAAHHH@Z @ 80 NONAME ; int TReportTranslator::GetValue(int &, int, int) const
	?IsVariable@CField@@QBEHXZ @ 81 NONAME ; int CField::IsVariable(void) const
	?ValueL@TReportTranslator@@QBEHHH@Z @ 82 NONAME ; int TReportTranslator::ValueL(int, int) const
	?SetUsageMax@CField@@QAEXH@Z @ 83 NONAME ; void CField::SetUsageMax(int)
	?SetType@CField@@QAEXABW4TType@1@@Z @ 84 NONAME ; void CField::SetType(enum CField::TType const &)
	?Usage@CField@@QBEHH@Z @ 85 NONAME ; int CField::Usage(int) const
	?NewL@CReportGenerator@@SAPAV1@PBVCReportRoot@@HW4TType@CField@@@Z @ 86 NONAME ; class CReportGenerator * CReportGenerator::NewL(class CReportRoot const *, int, enum CField::TType)
	?UsagePage@CField@@QBEHXZ @ 87 NONAME ; int CField::UsagePage(void) const
	?SetStringIndex@CField@@QAEXH@Z @ 88 NONAME ; void CField::SetStringIndex(int)
	?UsageMin@CField@@QBEHXZ @ 89 NONAME ; int CField::UsageMin(void) const
	?UsageArray@CField@@QBE?AV?$TArray@H@@XZ @ 90 NONAME ; class TArray<int> CField::UsageArray(void) const
	?SetCount@CField@@QAEXH@Z @ 91 NONAME ; void CField::SetCount(int)
	?UsagePage@CCollection@@QBEHXZ @ 92 NONAME ; int CCollection::UsagePage(void) const
	??1CHidDriver@@UAE@XZ @ 93 NONAME ; CHidDriver::~CHidDriver(void)
	?Offset@CField@@QBEHXZ @ 94 NONAME ; int CField::Offset(void) const
	?SetDesignatorMax@CField@@QAEXH@Z @ 95 NONAME ; void CField::SetDesignatorMax(int)
	?SetReportId@CField@@QAEXH@Z @ 96 NONAME ; void CField::SetReportId(int)
	?NewL@CParser@@SAPAV1@XZ @ 97 NONAME ; class CParser * CParser::NewL(void)
	?UsageCount@CField@@QBEHXZ @ 98 NONAME ; int CField::UsageCount(void) const
	?SetLogicalRange@CField@@QAEXHH@Z @ 99 NONAME ; void CField::SetLogicalRange(int, int)

