EXPORTS
	??1CWimCert@@UAE@XZ @ 1 NONAME ; CWimCert::~CWimCert(void)
	??1CWimCertConverter@@UAE@XZ @ 2 NONAME ; CWimCertConverter::~CWimCertConverter(void)
	??1CWimKeyDetails@@UAE@XZ @ 3 NONAME ; CWimKeyDetails::~CWimKeyDetails(void)
	??1CWimOMAProv@@UAE@XZ @ 4 NONAME ; CWimOMAProv::~CWimOMAProv(void)
	??1CWimPin@@UAE@XZ @ 5 NONAME ; CWimPin::~CWimPin(void)
	??1CWimSecModule@@UAE@XZ @ 6 NONAME ; CWimSecModule::~CWimSecModule(void)
	??1CWimSecModuleMgr@@UAE@XZ @ 7 NONAME ; CWimSecModuleMgr::~CWimSecModuleMgr(void)
	??1CWimTrustSettingsAPI@@UAE@XZ @ 8 NONAME ; CWimTrustSettingsAPI::~CWimTrustSettingsAPI(void)
	?AddCertificate@CWimCertConverter@@QAEXABVTDesC16@@W4TCertificateFormat@@W4TCertificateOwnerType@@ABV?$TBuf8@$0BE@@@3ABVTDesC8@@AAVTRequestStatus@@@Z @ 9 NONAME ; void CWimCertConverter::AddCertificate(class TDesC16 const &, enum TCertificateFormat, enum TCertificateOwnerType, class TBuf8<20> const &, class TBuf8<20> const &, class TDesC8 const &, class TRequestStatus &)
	?CancelAddCertificate@CWimCertConverter@@QAEXXZ @ 10 NONAME ; void CWimCertConverter::CancelAddCertificate(void)
	?CancelChangePin@CWimPin@@QAEXXZ @ 11 NONAME ; void CWimPin::CancelChangePin(void)
	?CancelDisablePinQuery@CWimPin@@QAEXXZ @ 12 NONAME ; void CWimPin::CancelDisablePinQuery(void)
	?CancelDoing@CWimTrustSettingsAPI@@QAEXXZ @ 13 NONAME ; void CWimTrustSettingsAPI::CancelDoing(void)
	?CancelEnablePinQuery@CWimPin@@QAEXXZ @ 14 NONAME ; void CWimPin::CancelEnablePinQuery(void)
	?CancelExport@CWimKeyDetails@@QAEXXZ @ 15 NONAME ; void CWimKeyDetails::CancelExport(void)
	?CancelGetExtras@CWimCert@@QAEXXZ @ 16 NONAME ; void CWimCert::CancelGetExtras(void)
	?CancelGetSize@CWimOMAProv@@QAEXXZ @ 17 NONAME ; void CWimOMAProv::CancelGetSize(void)
	?CancelInitialize@CWimCert@@QAEXXZ @ 18 NONAME ; void CWimCert::CancelInitialize(void)
	?CancelInitialize@CWimOMAProv@@QAEXXZ @ 19 NONAME ; void CWimOMAProv::CancelInitialize(void)
	?CancelList@CWimKeyDetails@@QAEXXZ @ 20 NONAME ; void CWimKeyDetails::CancelList(void)
	?CancelList@CWimSecModuleMgr@@QAEXXZ @ 21 NONAME ; void CWimSecModuleMgr::CancelList(void)
	?CancelNotifyOnRemoval@CWimSecModule@@QAEXXZ @ 22 NONAME ; void CWimSecModule::CancelNotifyOnRemoval(void)
	?CancelRemove@CWimCertConverter@@QAEXXZ @ 23 NONAME ; void CWimCertConverter::CancelRemove(void)
	?CancelRestore@CWimCertConverter@@QAEXXZ @ 24 NONAME ; void CWimCertConverter::CancelRestore(void)
	?CancelRetrieve@CWimCertConverter@@QAEXXZ @ 25 NONAME ; void CWimCertConverter::CancelRetrieve(void)
	?CancelRetrieve@CWimOMAProv@@QAEXXZ @ 26 NONAME ; void CWimOMAProv::CancelRetrieve(void)
	?CancelSign@CWimKeyDetails@@QAEXXZ @ 27 NONAME ; void CWimKeyDetails::CancelSign(void)
	?CancelUnblockPin@CWimPin@@QAEXXZ @ 28 NONAME ; void CWimPin::CancelUnblockPin(void)
	?CancelVerifyPin@CWimPin@@QAEXXZ @ 29 NONAME ; void CWimPin::CancelVerifyPin(void)
	?ChangePin@CWimPin@@QAEXAAVTRequestStatus@@@Z @ 30 NONAME ; void CWimPin::ChangePin(class TRequestStatus &)
	?Close@CWimSecModule@@QAEHXZ @ 31 NONAME ; int CWimSecModule::Close(void)
	?Close@CWimTrustSettingsAPI@@QAEXXZ @ 32 NONAME ; void CWimTrustSettingsAPI::Close(void)
	?CloseAfter@CWimSecModule@@QAEHXZ @ 33 NONAME ; int CWimSecModule::CloseAfter(void)
	?DisablePinQuery@CWimPin@@QAEXAAVTRequestStatus@@@Z @ 34 NONAME ; void CWimPin::DisablePinQuery(class TRequestStatus &)
	?EnablePinQuery@CWimPin@@QAEXAAVTRequestStatus@@@Z @ 35 NONAME ; void CWimPin::EnablePinQuery(class TRequestStatus &)
	?ExportPublicKeyL@CWimKeyDetails@@QAEXAAVTDesC8@@AAPAVHBufC8@@AAVTRequestStatus@@@Z @ 36 NONAME ; void CWimKeyDetails::ExportPublicKeyL(class TDesC8 &, class HBufC8 * &, class TRequestStatus &)
	?GetEntries@CWimSecModuleMgr@@QAEXAAV?$RCPointerArray@VHBufC16@@@@AAVTRequestStatus@@@Z @ 37 NONAME ; void CWimSecModuleMgr::GetEntries(class RCPointerArray<class HBufC16> &, class TRequestStatus &)
	?GetExtras@CWimCert@@QAEXABVTDesC8@@AAV?$RCPointerArray@VHBufC16@@@@AAW4TCertLocation@@AAVTRequestStatus@@@Z @ 38 NONAME ; void CWimCert::GetExtras(class TDesC8 const &, class RCPointerArray<class HBufC16> &, enum TCertLocation &, class TRequestStatus &)
	?GetKeyList@CWimKeyDetails@@QAEXAAV?$RPointerArray@VCCTKeyInfo@@@@AAV?$CArrayFixFlat@E@@AAVTRequestStatus@@@Z @ 39 NONAME ; void CWimKeyDetails::GetKeyList(class RPointerArray<class CCTKeyInfo> &, class CArrayFixFlat<unsigned char> &, class TRequestStatus &)
	?GetSize@CWimOMAProv@@QAEXAAHABW4TOMAType@@AAVTRequestStatus@@@Z @ 40 NONAME ; void CWimOMAProv::GetSize(int &, enum TOMAType const &, class TRequestStatus &)
	?GetTrustSettings@CWimTrustSettingsAPI@@QAEXABVCWimCertInfo@@AAHAAV?$RArray@VTUid@@@@AAVTRequestStatus@@@Z @ 41 NONAME ; void CWimTrustSettingsAPI::GetTrustSettings(class CWimCertInfo const &, int &, class RArray<class TUid> &, class TRequestStatus &)
	?GetWimSecModuleByIndexL@CWimSecModuleMgr@@QAEPAVCWimSecModule@@H@Z @ 42 NONAME ; class CWimSecModule * CWimSecModuleMgr::GetWimSecModuleByIndexL(int)
	?Initialize@CWimCert@@QAEXAAVTRequestStatus@@@Z @ 43 NONAME ; void CWimCert::Initialize(class TRequestStatus &)
	?Initialize@CWimOMAProv@@QAEXAAVTRequestStatus@@@Z @ 44 NONAME ; void CWimOMAProv::Initialize(class TRequestStatus &)
	?IsOpen@CWimSecModule@@QAEHXZ @ 45 NONAME ; int CWimSecModule::IsOpen(void)
	?Label@CWimPin@@QAE?AVTPtrC16@@XZ @ 46 NONAME ; class TPtrC16 CWimPin::Label(void)
	?Label@CWimSecModule@@QAE?AVTPtrC16@@XZ @ 47 NONAME ; class TPtrC16 CWimSecModule::Label(void)
	?Manufacturer@CWimSecModule@@QAEABVTDesC16@@XZ @ 48 NONAME ; class TDesC16 const & CWimSecModule::Manufacturer(void)
	?NewL@CWimCert@@SAPAV1@XZ @ 49 NONAME ; class CWimCert * CWimCert::NewL(void)
	?NewL@CWimCertConverter@@SAPAV1@AAVMCTToken@@@Z @ 50 NONAME ; class CWimCertConverter * CWimCertConverter::NewL(class MCTToken &)
	?NewL@CWimKeyDetails@@SAPAV1@AAVMCTToken@@@Z @ 51 NONAME ; class CWimKeyDetails * CWimKeyDetails::NewL(class MCTToken &)
	?NewL@CWimOMAProv@@SAPAV1@XZ @ 52 NONAME ; class CWimOMAProv * CWimOMAProv::NewL(void)
	?NewL@CWimPin@@SAPAV1@W4TWimPin@@KAAVTDesC16@@@Z @ 53 NONAME ; class CWimPin * CWimPin::NewL(enum TWimPin, unsigned long, class TDesC16 &)
	?NewL@CWimSecModule@@SAPAV1@K@Z @ 54 NONAME ; class CWimSecModule * CWimSecModule::NewL(unsigned long)
	?NewL@CWimSecModuleMgr@@SAPAV1@XZ @ 55 NONAME ; class CWimSecModuleMgr * CWimSecModuleMgr::NewL(void)
	?NewL@CWimTrustSettingsAPI@@SAPAV1@XZ @ 56 NONAME ; class CWimTrustSettingsAPI * CWimTrustSettingsAPI::NewL(void)
	?NotifyOnRemoval@CWimSecModule@@QAEXAAVTRequestStatus@@@Z @ 57 NONAME ; void CWimSecModule::NotifyOnRemoval(class TRequestStatus &)
	?PinNrEntriesL@CWimSecModule@@QAEHAAPBV?$CArrayPtrFlat@VCWimPin@@@@@Z @ 58 NONAME ; int CWimSecModule::PinNrEntriesL(class CArrayPtrFlat<class CWimPin> const * &)
	?PinNrEntriesL@CWimSecModule@@QAEHAAPBV?$CArrayPtrFlat@VCWimPin@@@@AAVTRequestStatus@@@Z @ 59 NONAME ; int CWimSecModule::PinNrEntriesL(class CArrayPtrFlat<class CWimPin> const * &, class TRequestStatus &)
	?PinNumber@CWimPin@@QAEEXZ @ 60 NONAME ; unsigned char CWimPin::PinNumber(void)
	?PinStatus@CWimPin@@QAEEXZ @ 61 NONAME ; unsigned char CWimPin::PinStatus(void)
	?RemoveL@CWimCertConverter@@QAEXHAAVTRequestStatus@@@Z @ 62 NONAME ; void CWimCertConverter::RemoveL(int, class TRequestStatus &)
	?RemoveTrustSettings@CWimTrustSettingsAPI@@QAEXABVCWimCertInfo@@AAVTRequestStatus@@@Z @ 63 NONAME ; void CWimTrustSettingsAPI::RemoveTrustSettings(class CWimCertInfo const &, class TRequestStatus &)
	?Restore@CWimCertConverter@@QAEXAAV?$RPointerArray@VCWimCertInfo@@@@AAVTRequestStatus@@@Z @ 64 NONAME ; void CWimCertConverter::Restore(class RPointerArray<class CWimCertInfo> &, class TRequestStatus &)
	?Retrieve@CWimOMAProv@@QAEXABW4TOMAType@@AAVTDes8@@AAVTRequestStatus@@@Z @ 65 NONAME ; void CWimOMAProv::Retrieve(enum TOMAType const &, class TDes8 &, class TRequestStatus &)
	?RetrieveCertByIndexL@CWimCertConverter@@QAEXHAAVTDes8@@AAVTRequestStatus@@@Z @ 66 NONAME ; void CWimCertConverter::RetrieveCertByIndexL(int, class TDes8 &, class TRequestStatus &)
	?SerialNumber@CWimSecModule@@QAEABVTDesC16@@XZ @ 67 NONAME ; class TDesC16 const & CWimSecModule::SerialNumber(void)
	?SetApplicability@CWimTrustSettingsAPI@@QAEXABVCWimCertInfo@@ABV?$RArray@VTUid@@@@AAVTRequestStatus@@@Z @ 68 NONAME ; void CWimTrustSettingsAPI::SetApplicability(class CWimCertInfo const &, class RArray<class TUid> const &, class TRequestStatus &)
	?SetCloseAfter@CWimSecModule@@QAEXI@Z @ 69 NONAME ; void CWimSecModule::SetCloseAfter(unsigned int)
	?SetDefaultTrustSettings@CWimTrustSettingsAPI@@QAEXABVCWimCertInfo@@HAAVTRequestStatus@@@Z @ 70 NONAME ; void CWimTrustSettingsAPI::SetDefaultTrustSettings(class CWimCertInfo const &, int, class TRequestStatus &)
	?SetTrust@CWimTrustSettingsAPI@@QAEXABVCWimCertInfo@@HAAVTRequestStatus@@@Z @ 71 NONAME ; void CWimTrustSettingsAPI::SetTrust(class CWimCertInfo const &, int, class TRequestStatus &)
	?Sign@CWimKeyDetails@@QAEXABVTDesC8@@AAV2@AAPAVHBufC8@@AAVTRequestStatus@@@Z @ 72 NONAME ; void CWimKeyDetails::Sign(class TDesC8 const &, class TDesC8 &, class HBufC8 * &, class TRequestStatus &)
	?TimeRemaining@CWimSecModule@@QAEHXZ @ 73 NONAME ; int CWimSecModule::TimeRemaining(void)
	?TokenNumber@CWimSecModule@@QAEEXZ @ 74 NONAME ; unsigned char CWimSecModule::TokenNumber(void)
	?UnblockPin@CWimPin@@QAEXAAVTRequestStatus@@@Z @ 75 NONAME ; void CWimPin::UnblockPin(class TRequestStatus &)
	?VerifyPin@CWimPin@@QAEXAAVTRequestStatus@@@Z @ 76 NONAME ; void CWimPin::VerifyPin(class TRequestStatus &)
	?Version@CWimSecModule@@QAEABVTDesC16@@XZ @ 77 NONAME ; class TDesC16 const & CWimSecModule::Version(void)
	?WimCount@CWimSecModuleMgr@@QAEHXZ @ 78 NONAME ; int CWimSecModuleMgr::WimCount(void)
	?WimLabelByIndexL@CWimSecModuleMgr@@QAE?AVTPtrC16@@H@Z @ 79 NONAME ; class TPtrC16 CWimSecModuleMgr::WimLabelByIndexL(int)
	?WimTokenNumberByIndexL@CWimSecModuleMgr@@QAEHH@Z @ 80 NONAME ; int CWimSecModuleMgr::WimTokenNumberByIndexL(int)
	??1CWimJavaUtils@@UAE@XZ @ 81 NONAME ; CWimJavaUtils::~CWimJavaUtils(void)
	?CancelGetACFSize@CWimJavaUtils@@QAEXXZ @ 82 NONAME ; void CWimJavaUtils::CancelGetACFSize(void)
	?CancelGetACIFSize@CWimJavaUtils@@QAEXXZ @ 83 NONAME ; void CWimJavaUtils::CancelGetACIFSize(void)
	?CancelGetAuthObjsInfo@CWimJavaUtils@@QAEXXZ @ 84 NONAME ; void CWimJavaUtils::CancelGetAuthObjsInfo(void)
	?CancelInitialize@CWimJavaUtils@@QAEXXZ @ 85 NONAME ; void CWimJavaUtils::CancelInitialize(void)
	?CancelRetrieveACFContent@CWimJavaUtils@@QAEXXZ @ 86 NONAME ; void CWimJavaUtils::CancelRetrieveACFContent(void)
	?CancelRetrieveACIFContent@CWimJavaUtils@@QAEXXZ @ 87 NONAME ; void CWimJavaUtils::CancelRetrieveACIFContent(void)
	?CancelRetrieveWimLabelAndPath@CWimJavaUtils@@QAEXXZ @ 88 NONAME ; void CWimJavaUtils::CancelRetrieveWimLabelAndPath(void)
	?GetACFSize@CWimJavaUtils@@QAEXAAHABVTDesC8@@AAVTRequestStatus@@@Z @ 89 NONAME ; void CWimJavaUtils::GetACFSize(int &, class TDesC8 const &, class TRequestStatus &)
	?GetACIFSize@CWimJavaUtils@@QAEXAAHAAVTRequestStatus@@@Z @ 90 NONAME ; void CWimJavaUtils::GetACIFSize(int &, class TRequestStatus &)
	?GetAuthObjsInfo@CWimJavaUtils@@QAEXABV?$RArray@H@@AAV?$RArray@UTJavaPINParams@@@@AAVTRequestStatus@@@Z @ 91 NONAME ; void CWimJavaUtils::GetAuthObjsInfo(class RArray<int> const &, class RArray<struct TJavaPINParams> &, class TRequestStatus &)
	?Initialize@CWimJavaUtils@@QAEXAAVTRequestStatus@@@Z @ 92 NONAME ; void CWimJavaUtils::Initialize(class TRequestStatus &)
	?NewL@CWimJavaUtils@@SAPAV1@XZ @ 93 NONAME ; class CWimJavaUtils * CWimJavaUtils::NewL(void)
	?RetrieveACFContent@CWimJavaUtils@@QAEXAAVTDes8@@ABVTDesC8@@AAVTRequestStatus@@@Z @ 94 NONAME ; void CWimJavaUtils::RetrieveACFContent(class TDes8 &, class TDesC8 const &, class TRequestStatus &)
	?RetrieveACIFContent@CWimJavaUtils@@QAEXAAVTDes8@@AAVTRequestStatus@@@Z @ 95 NONAME ; void CWimJavaUtils::RetrieveACIFContent(class TDes8 &, class TRequestStatus &)
	?RetrieveWimLabelAndPath@CWimJavaUtils@@QAEXAAVTDes8@@0AAVTRequestStatus@@@Z @ 96 NONAME ; void CWimJavaUtils::RetrieveWimLabelAndPath(class TDes8 &, class TDes8 &, class TRequestStatus &)

