EXPORTS
	??0CCrData@@QAE@H@Z @ 1 NONAME ; CCrData::CCrData(int)
	??0CCrData@@QAE@XZ @ 2 NONAME ; CCrData::CCrData(void)
	??1CCrBer@@UAE@XZ @ 3 NONAME ; CCrBer::~CCrBer(void)
	??1CCrBerSet@@UAE@XZ @ 4 NONAME ; CCrBerSet::~CCrBerSet(void)
	??1CCrData@@UAE@XZ @ 5 NONAME ; CCrData::~CCrData(void)
	?AddToContentLen@CCrBer@@QAEXH@Z @ 6 NONAME ; void CCrBer::AddToContentLen(int)
	?AppendAndUpdateL@CCrBerSet@@QAEXPAVCCrBer@@@Z @ 7 NONAME ; void CCrBerSet::AppendAndUpdateL(class CCrBer *)
	?BufferL@CCrBer@@SAHPAVHBufC16@@PAVCCrData@@IE@Z @ 8 NONAME ; int CCrBer::BufferL(class HBufC16 *, class CCrData *, unsigned int, unsigned char)
	?BufferL@CCrBer@@SAHPAVHBufC8@@PAVCCrData@@II@Z @ 9 NONAME ; int CCrBer::BufferL(class HBufC8 *, class CCrData *, unsigned int, unsigned int)
	?Close@CCrData@@QAEXXZ @ 10 NONAME ; void CCrData::Close(void)
	?CloseLastSeqOrSet@CCrBerSet@@QAEXI@Z @ 11 NONAME ; void CCrBerSet::CloseLastSeqOrSet(unsigned int)
	?Content@CCrBer@@QAEHPAVHBufC8@@@Z @ 12 NONAME ; int CCrBer::Content(class HBufC8 *)
	?ContentBegin@CCrBer@@QAEHXZ @ 13 NONAME ; int CCrBer::ContentBegin(void)
	?ContentL@CCrBer@@QAEHPAVHBufC16@@@Z @ 14 NONAME ; int CCrBer::ContentL(class HBufC16 *)
	?ContentLen@CCrBer@@QAEHXZ @ 15 NONAME ; int CCrBer::ContentLen(void)
	?CreateBEREncodedObjectL@CCrBerSet@@QAEXAAVTDesC8@@@Z @ 16 NONAME ; void CCrBerSet::CreateBEREncodedObjectL(class TDesC8 &)
	?CreateBoolL@CCrBerSet@@QAEXH@Z @ 17 NONAME ; void CCrBerSet::CreateBoolL(int)
	?CreateConstructedStartL@CCrBerSet@@QAEXEH@Z @ 18 NONAME ; void CCrBerSet::CreateConstructedStartL(unsigned char, int)
	?CreateEndL@CCrBerSet@@QAEXXZ @ 19 NONAME ; void CCrBerSet::CreateEndL(void)
	?CreateGenTimeL@CCrBerSet@@QAEXAAVTDesC8@@@Z @ 20 NONAME ; void CCrBerSet::CreateGenTimeL(class TDesC8 &)
	?CreateGeneralL@CCrBerSet@@QAEXAAVTDesC8@@@Z @ 21 NONAME ; void CCrBerSet::CreateGeneralL(class TDesC8 &)
	?CreateGraphicalL@CCrBerSet@@QAEXAAVTDesC8@@@Z @ 22 NONAME ; void CCrBerSet::CreateGraphicalL(class TDesC8 &)
	?CreateIA5L@CCrBerSet@@QAEXAAVTDesC8@@@Z @ 23 NONAME ; void CCrBerSet::CreateIA5L(class TDesC8 &)
	?CreateIntL@CCrBerSet@@QAEXH@Z @ 24 NONAME ; void CCrBerSet::CreateIntL(int)
	?CreateLongIntL@CCrBerSet@@QAEXAAVRInteger@@@Z @ 25 NONAME ; void CCrBerSet::CreateLongIntL(class RInteger &)
	?CreateNullL@CCrBerSet@@QAEXXZ @ 26 NONAME ; void CCrBerSet::CreateNullL(void)
	?CreateNumericL@CCrBerSet@@QAEXAAVTDesC8@@@Z @ 27 NONAME ; void CCrBerSet::CreateNumericL(class TDesC8 &)
	?CreateOIdL@CCrBerSet@@QAEXAAVTDesC8@@@Z @ 28 NONAME ; void CCrBerSet::CreateOIdL(class TDesC8 &)
	?CreateOctetL@CCrBerSet@@QAEXAAVTDesC8@@@Z @ 29 NONAME ; void CCrBerSet::CreateOctetL(class TDesC8 &)
	?CreateOctetL@CCrBerSet@@QAEXPAVCCrData@@@Z @ 30 NONAME ; void CCrBerSet::CreateOctetL(class CCrData *)
	?CreatePrintableL@CCrBerSet@@QAEXAAVTDesC8@@@Z @ 31 NONAME ; void CCrBerSet::CreatePrintableL(class TDesC8 &)
	?CreateSeqStartL@CCrBerSet@@QAEXH@Z @ 32 NONAME ; void CCrBerSet::CreateSeqStartL(int)
	?CreateSetStartL@CCrBerSet@@QAEXH@Z @ 33 NONAME ; void CCrBerSet::CreateSetStartL(int)
	?CreateT61L@CCrBerSet@@QAEXAAVTDesC8@@@Z @ 34 NONAME ; void CCrBerSet::CreateT61L(class TDesC8 &)
	?CreateUTCL@CCrBerSet@@QAEXAAVTDesC8@@@Z @ 35 NONAME ; void CCrBerSet::CreateUTCL(class TDesC8 &)
	?CreateVideoTexL@CCrBerSet@@QAEXAAVTDesC8@@@Z @ 36 NONAME ; void CCrBerSet::CreateVideoTexL(class TDesC8 &)
	?CreateVisibleL@CCrBerSet@@QAEXAAVTDesC8@@@Z @ 37 NONAME ; void CCrBerSet::CreateVisibleL(class TDesC8 &)
	?Data@CCrBer@@QAEPAVCCrData@@XZ @ 38 NONAME ; class CCrData * CCrBer::Data(void)
	?Delete@CCrData@@QAEHHH@Z @ 39 NONAME ; int CCrData::Delete(int, int)
	?FindEndOfContent@CCrBer@@QAEIPAVCCrData@@@Z @ 40 NONAME ; unsigned int CCrBer::FindEndOfContent(class CCrData *)
	?FlushL@CCrBerSet@@QAEHPAVCCrData@@@Z @ 41 NONAME ; int CCrBerSet::FlushL(class CCrData *)
	?GetBigInt@CCrBer@@QAE?AVRInteger@@XZ @ 42 NONAME ; class RInteger CCrBer::GetBigInt(void)
	?GetBooleanL@CCrBer@@QAEHXZ @ 43 NONAME ; int CCrBer::GetBooleanL(void)
	?GetContentStringLC@CCrBer@@QAEPAVHBufC8@@XZ @ 44 NONAME ; class HBufC8 * CCrBer::GetContentStringLC(void)
	?GetGeneralStringL@CCrBer@@QAEPAVHBufC16@@XZ @ 45 NONAME ; class HBufC16 * CCrBer::GetGeneralStringL(void)
	?GetGeneralizedTimeL@CCrBer@@QAE?AVTTime@@XZ @ 46 NONAME ; class TTime CCrBer::GetGeneralizedTimeL(void)
	?GetGraphicsStringL@CCrBer@@QAEPAVHBufC16@@XZ @ 47 NONAME ; class HBufC16 * CCrBer::GetGraphicsStringL(void)
	?GetIA5StringL@CCrBer@@QAEPAVHBufC16@@XZ @ 48 NONAME ; class HBufC16 * CCrBer::GetIA5StringL(void)
	?GetIntegerL@CCrBer@@QAEHXZ @ 49 NONAME ; int CCrBer::GetIntegerL(void)
	?GetLongIntegerL@CCrBer@@QAE?AVRInteger@@XZ @ 50 NONAME ; class RInteger CCrBer::GetLongIntegerL(void)
	?GetNumericStringL@CCrBer@@QAEPAVHBufC16@@XZ @ 51 NONAME ; class HBufC16 * CCrBer::GetNumericStringL(void)
	?GetOctetStringL@CCrBer@@QAEPAVHBufC8@@XZ @ 52 NONAME ; class HBufC8 * CCrBer::GetOctetStringL(void)
	?GetOctetStringL@CCrBer@@QAEXAAVCCrData@@@Z @ 53 NONAME ; void CCrBer::GetOctetStringL(class CCrData &)
	?GetOidL@CCrBer@@QAEPAVHBufC16@@XZ @ 54 NONAME ; class HBufC16 * CCrBer::GetOidL(void)
	?GetPrintStringL@CCrBer@@QAEPAVHBufC16@@XZ @ 55 NONAME ; class HBufC16 * CCrBer::GetPrintStringL(void)
	?GetSequenceL@CCrBer@@QAEPAVHBufC8@@XZ @ 56 NONAME ; class HBufC8 * CCrBer::GetSequenceL(void)
	?GetTeletextStringL@CCrBer@@QAEPAVHBufC16@@XZ @ 57 NONAME ; class HBufC16 * CCrBer::GetTeletextStringL(void)
	?GetUTCTimeL@CCrBer@@QAE?AVTTime@@XZ @ 58 NONAME ; class TTime CCrBer::GetUTCTimeL(void)
	?GetVideoStringL@CCrBer@@QAEPAVHBufC16@@XZ @ 59 NONAME ; class HBufC16 * CCrBer::GetVideoStringL(void)
	?GetVisibleStringL@CCrBer@@QAEPAVHBufC16@@XZ @ 60 NONAME ; class HBufC16 * CCrBer::GetVisibleStringL(void)
	?Indefinite@CCrBer@@QAEHXZ @ 61 NONAME ; int CCrBer::Indefinite(void)
	?IsFile@CCrData@@QAEHXZ @ 62 NONAME ; int CCrData::IsFile(void)
	?IsKnownType@CCrBer@@SAHE@Z @ 63 NONAME ; int CCrBer::IsKnownType(unsigned char)
	?IsSeqOrSet@CCrBer@@SAHE@Z @ 64 NONAME ; int CCrBer::IsSeqOrSet(unsigned char)
	?LenLen@CCrBer@@QAEHXZ @ 65 NONAME ; int CCrBer::LenLen(void)
	?Level@CCrBer@@QAEIXZ @ 66 NONAME ; unsigned int CCrBer::Level(void)
	?LineL@CCrData@@QAEHAAVTDes8@@@Z @ 67 NONAME ; int CCrData::LineL(class TDes8 &)
	?NewL@CCrBer@@SAPAV1@H@Z @ 68 NONAME ; class CCrBer * CCrBer::NewL(int)
	?NewL@CCrBerSet@@SAPAV1@H@Z @ 69 NONAME ; class CCrBerSet * CCrBerSet::NewL(int)
	?NewL@CCrData@@SAPAV1@H@Z @ 70 NONAME ; class CCrData * CCrData::NewL(int)
	?NewL@CCrDataSet@@SAPAV1@H@Z @ 71 NONAME ; class CCrDataSet * CCrDataSet::NewL(int)
	?NewLC@CCrBer@@SAPAV1@H@Z @ 72 NONAME ; class CCrBer * CCrBer::NewLC(int)
	?NewLC@CCrBerSet@@SAPAV1@H@Z @ 73 NONAME ; class CCrBerSet * CCrBerSet::NewLC(int)
	?NewLC@CCrData@@SAPAV1@H@Z @ 74 NONAME ; class CCrData * CCrData::NewLC(int)
	?NewLC@CCrDataSet@@SAPAV1@H@Z @ 75 NONAME ; class CCrDataSet * CCrDataSet::NewLC(int)
	?Object@CCrBer@@QAEHPAVHBufC8@@@Z @ 76 NONAME ; int CCrBer::Object(class HBufC8 *)
	?ObjectBegin@CCrBer@@QAEHXZ @ 77 NONAME ; int CCrBer::ObjectBegin(void)
	?ObjectL@CCrBer@@QAEHPAVHBufC16@@@Z @ 78 NONAME ; int CCrBer::ObjectL(class HBufC16 *)
	?ObjectLen@CCrBer@@QAEHXZ @ 79 NONAME ; int CCrBer::ObjectLen(void)
	?Open@CCrData@@QAEHAAVRFs@@ABVTDesC16@@I@Z @ 80 NONAME ; int CCrData::Open(class RFs &, class TDesC16 const &, unsigned int)
	?Open@CCrData@@QAEHAAVRFs@@I@Z @ 81 NONAME ; int CCrData::Open(class RFs &, unsigned int)
	?OpenConstructedEncodingL@CCrBer@@QAEHAAVCCrData@@@Z @ 82 NONAME ; int CCrBer::OpenConstructedEncodingL(class CCrData &)
	?OpenConstructedEncodingWithTagL@CCrBer@@QAEIPAVCCrData@@AAV1@PAVHBufC8@@@Z @ 83 NONAME ; unsigned int CCrBer::OpenConstructedEncodingWithTagL(class CCrData *, class CCrBer &, class HBufC8 *)
	?OpenL@CCrBerSet@@QAEIPAVCCrData@@E@Z @ 84 NONAME ; unsigned int CCrBerSet::OpenL(class CCrData *, unsigned char)
	?Path@CCrData@@QAEPAVHBufC16@@XZ @ 85 NONAME ; class HBufC16 * CCrData::Path(void)
	?Read@CCrBer@@QAEEPAVCCrData@@@Z @ 86 NONAME ; unsigned char CCrBer::Read(class CCrData *)
	?Read@CCrData@@QAEHAAVTDes8@@@Z @ 87 NONAME ; int CCrData::Read(class TDes8 &)
	?Read@CCrData@@QAEHAAVTDes8@@H@Z @ 88 NONAME ; int CCrData::Read(class TDes8 &, int)
	?Read@CCrData@@QAEHHAAVTDes8@@H@Z @ 89 NONAME ; int CCrData::Read(int, class TDes8 &, int)
	?ReadLen@CCrBer@@QAEIPAVCCrData@@AAHPAE@Z @ 90 NONAME ; unsigned int CCrBer::ReadLen(class CCrData *, int &, unsigned char *)
	?ReadType@CCrBer@@SAEPAVCCrData@@@Z @ 91 NONAME ; unsigned char CCrBer::ReadType(class CCrData *)
	?Replace@CCrData@@QAEHAAVRFs@@ABVTDesC16@@I@Z @ 92 NONAME ; int CCrData::Replace(class RFs &, class TDesC16 const &, unsigned int)
	?Seek@CCrData@@QAEHW4TSeek@@AAH@Z @ 93 NONAME ; int CCrData::Seek(enum TSeek, int &)
	?SetLevel@CCrBer@@QAEII@Z @ 94 NONAME ; unsigned int CCrBer::SetLevel(unsigned int)
	?SetObjLenWithOutContent@CCrBer@@QAEXI@Z @ 95 NONAME ; void CCrBer::SetObjLenWithOutContent(unsigned int)
	?SetObjectLen@CCrBer@@QAEXXZ @ 96 NONAME ; void CCrBer::SetObjectLen(void)
	?SetPathL@CCrData@@QAEXABVTDesC16@@@Z @ 97 NONAME ; void CCrData::SetPathL(class TDesC16 const &)
	?SetValue@CCrBer@@QAEXH@Z @ 98 NONAME ; void CCrBer::SetValue(int)
	?Size@CCrData@@QAEHAAH@Z @ 99 NONAME ; int CCrData::Size(int &)
	?Type@CCrBer@@QAEEXZ @ 100 NONAME ; unsigned char CCrBer::Type(void)
	?Update@CCrBerSet@@QAEXPAVCCrBer@@@Z @ 101 NONAME ; void CCrBerSet::Update(class CCrBer *)
	?Value@CCrBer@@QAEHXZ @ 102 NONAME ; int CCrBer::Value(void)
	?ValuePtr@CCrBer@@QAEPAVTDesC8@@XZ @ 103 NONAME ; class TDesC8 * CCrBer::ValuePtr(void)
	?Write@CCrData@@QAEHABVTDesC8@@@Z @ 104 NONAME ; int CCrData::Write(class TDesC8 const &)
	?Write@CCrData@@QAEHABVTDesC8@@H@Z @ 105 NONAME ; int CCrData::Write(class TDesC8 const &, int)
	?Zero@CCrData@@QAEHHH@Z @ 106 NONAME ; int CCrData::Zero(int, int)

