EXPORTS
	?IsFolderAcceptedL@CMTPFSExclusionMgr@@UBEHABVTDesC16@@K@Z @ 1 NONAME ; int CMTPFSExclusionMgr::IsFolderAcceptedL(class TDesC16 const &, unsigned long) const
	?SendResponseL@CMTPRequestProcessor@@IAEXW4TMTPResponseCode@@HPAK@Z @ 2 NONAME ; void CMTPRequestProcessor::SendResponseL(enum TMTPResponseCode, int, unsigned long *)
	?CompleteRequestL@CMTPRequestProcessor@@IAEXXZ @ 3 NONAME ; void CMTPRequestProcessor::CompleteRequestL(void)
	??1CMTPSendObjectInfo@@UAE@XZ @ 4 NONAME ; CMTPSendObjectInfo::~CMTPSendObjectInfo(void)
	??1CMTPFSEnumerator@@UAE@XZ @ 5 NONAME ; CMTPFSEnumerator::~CMTPFSEnumerator(void)
	?HandleEventL@CMTPRequestProcessor@@MAEXABVTMTPTypeEvent@@@Z @ 6 NONAME ; void CMTPRequestProcessor::HandleEventL(class TMTPTypeEvent const &)
	?StartL@CMTPFSEnumerator@@QAEXK@Z @ 7 NONAME ABSENT ; void CMTPFSEnumerator::StartL(unsigned long)
	?NewL@CMTPGetObject@@SAPAVMMTPRequestProcessor@@AAVMMTPDataProviderFramework@@AAVMMTPConnection@@@Z @ 8 NONAME ; class MMTPRequestProcessor * CMTPGetObject::NewL(class MMTPDataProviderFramework &, class MMTPConnection &)
	??1CMTPRequestChecker@@UAE@XZ @ 9 NONAME ; CMTPRequestChecker::~CMTPRequestChecker(void)
	?HasDataphase@CMTPRequestProcessor@@MBEHXZ @ 10 NONAME ; int CMTPRequestProcessor::HasDataphase(void) const
	?SetPropertyL@CMTPObjectPropertyMgr@@QAE?AW4TMTPResponseCode@@W4TMTPObjectPropertyCode@@E@Z @ 11 NONAME ABSENT ; enum TMTPResponseCode CMTPObjectPropertyMgr::SetPropertyL(enum TMTPObjectPropertyCode, unsigned char)
	?NewL@CMTPGetFormatCapabilities@@SAPAVMMTPRequestProcessor@@AAVMMTPDataProviderFramework@@AAVMMTPConnection@@@Z @ 12 NONAME ; class MMTPRequestProcessor * CMTPGetFormatCapabilities::NewL(class MMTPDataProviderFramework &, class MMTPConnection &)
	?NewL@CMTPSetObjectPropList@@SAPAVMMTPRequestProcessor@@AAVMMTPDataProviderFramework@@AAVMMTPConnection@@@Z @ 13 NONAME ; class MMTPRequestProcessor * CMTPSetObjectPropList::NewL(class MMTPDataProviderFramework &, class MMTPConnection &)
	?VerifyRequestL@CMTPRequestChecker@@QAE?AW4TMTPResponseCode@@ABVTMTPTypeRequest@@HPBUTMTPRequestElementInfo@@@Z @ 14 NONAME ; enum TMTPResponseCode CMTPRequestChecker::VerifyRequestL(class TMTPTypeRequest const &, int, struct TMTPRequestElementInfo const *)
	??1CMTPRequestProcessor@@MAE@XZ @ 15 NONAME ; CMTPRequestProcessor::~CMTPRequestProcessor(void)
	?Close@RMTPDpSingletons@@QAEXXZ @ 16 NONAME ; void RMTPDpSingletons::Close(void)
	?NewL@CMTPDeleteObject@@SAPAVMMTPRequestProcessor@@AAVMMTPDataProviderFramework@@AAVMMTPConnection@@@Z @ 17 NONAME ; class MMTPRequestProcessor * CMTPDeleteObject::NewL(class MMTPDataProviderFramework &, class MMTPConnection &)
	?DoHandleDataIToRPhaseL@CMTPRequestProcessor@@MAEHXZ @ 18 NONAME ; int CMTPRequestProcessor::DoHandleDataIToRPhaseL(void)
	?SetCurrentObjectL@CMTPObjectPropertyMgr@@QAEXK@Z @ 19 NONAME ABSENT ; void CMTPObjectPropertyMgr::SetCurrentObjectL(unsigned long)
	?NewL@CMTPFSEnumerator@@SAPAV1@AAVMMTPDataProviderFramework@@AAVCMTPFSExclusionMgr@@AAVMMTPEnumerationCallback@@H@Z @ 20 NONAME ; class CMTPFSEnumerator * CMTPFSEnumerator::NewL(class MMTPDataProviderFramework &, class CMTPFSExclusionMgr &, class MMTPEnumerationCallback &, int)
	??1CMTPGetObjectPropDesc@@UAE@XZ @ 21 NONAME ; CMTPGetObjectPropDesc::~CMTPGetObjectPropDesc(void)
	?SetExclusionMgrL@RMTPDpSingletons@@QAEXAAVCMTPFSExclusionMgr@@@Z @ 22 NONAME ; void RMTPDpSingletons::SetExclusionMgrL(class CMTPFSExclusionMgr &)
	?SendDataL@CMTPRequestProcessor@@IAEXABVMMTPType@@@Z @ 23 NONAME ; void CMTPRequestProcessor::SendDataL(class MMTPType const &)
	?ExclusionMgrL@RMTPDpSingletons@@QBEAAVCMTPFSExclusionMgr@@XZ @ 24 NONAME ; class CMTPFSExclusionMgr & RMTPDpSingletons::ExclusionMgrL(void) const
	?GetPropertyL@CMTPObjectPropertyMgr@@QAE?AW4TMTPResponseCode@@W4TMTPObjectPropertyCode@@AAG@Z @ 25 NONAME ABSENT ; enum TMTPResponseCode CMTPObjectPropertyMgr::GetPropertyL(enum TMTPObjectPropertyCode, unsigned short &)
	??1CMTPPropertyStore@@UAE@XZ @ 26 NONAME ABSENT ; CMTPPropertyStore::~CMTPPropertyStore(void)
	?Match@CMTPRequestUnknown@@MBEHABVTMTPTypeRequest@@AAVMMTPConnection@@@Z @ 27 NONAME ; int CMTPRequestUnknown::Match(class TMTPTypeRequest const &, class MMTPConnection &) const
	?SetPropertyL@CMTPObjectPropertyMgr@@QAE?AW4TMTPResponseCode@@W4TMTPObjectPropertyCode@@ABVTDesC16@@@Z @ 28 NONAME ABSENT ; enum TMTPResponseCode CMTPObjectPropertyMgr::SetPropertyL(enum TMTPObjectPropertyCode, class TDesC16 const &)
	??1CMTPCopyObject@@UAE@XZ @ 29 NONAME ; CMTPCopyObject::~CMTPCopyObject(void)
	??1CMTPGetObject@@UAE@XZ @ 30 NONAME ; CMTPGetObject::~CMTPGetObject(void)
	?GetPropertyL@CMTPPropertyStore@@QAEHABVTMTPTypeUint32@@W4TMTPObjectPropertyCode@@AA_K@Z @ 31 NONAME ABSENT ; int CMTPPropertyStore::GetPropertyL(class TMTPTypeUint32 const &, enum TMTPObjectPropertyCode, unsigned long long &)
	?NewL@CMTPSetReferences@@SAPAVMMTPRequestProcessor@@AAVMMTPDataProviderFramework@@AAVMMTPConnection@@@Z @ 32 NONAME ; class MMTPRequestProcessor * CMTPSetReferences::NewL(class MMTPDataProviderFramework &, class MMTPConnection &)
	??1CMTPGetObjectPropValue@@UAE@XZ @ 33 NONAME ; CMTPGetObjectPropValue::~CMTPGetObjectPropValue(void)
	??1CMTPDeleteObject@@UAE@XZ @ 34 NONAME ; CMTPDeleteObject::~CMTPDeleteObject(void)
	?GetPropertyL@CMTPObjectPropertyMgr@@QAE?AW4TMTPResponseCode@@W4TMTPObjectPropertyCode@@AAVCMTPTypeString@@@Z @ 35 NONAME ABSENT ; enum TMTPResponseCode CMTPObjectPropertyMgr::GetPropertyL(enum TMTPObjectPropertyCode, class CMTPTypeString &)
	?NewL@CMTPRequestUnknown@@SAPAVMMTPRequestProcessor@@AAVMMTPDataProviderFramework@@AAVMMTPConnection@@@Z @ 36 NONAME ; class MMTPRequestProcessor * CMTPRequestUnknown::NewL(class MMTPDataProviderFramework &, class MMTPConnection &)
	?RunError@CMTPRequestProcessor@@MAEHH@Z @ 37 NONAME ; int CMTPRequestProcessor::RunError(int)
	?GetPropertyL@CMTPObjectPropertyMgr@@QAE?AW4TMTPResponseCode@@W4TMTPObjectPropertyCode@@AAK@Z @ 38 NONAME ABSENT ; enum TMTPResponseCode CMTPObjectPropertyMgr::GetPropertyL(enum TMTPObjectPropertyCode, unsigned long &)
	?NewL@CMTPRequestChecker@@SAPAV1@AAVMMTPDataProviderFramework@@AAVMMTPConnection@@@Z @ 39 NONAME ; class CMTPRequestChecker * CMTPRequestChecker::NewL(class MMTPDataProviderFramework &, class MMTPConnection &)
	?NewL@CMTPGetObjectPropDesc@@SAPAVMMTPRequestProcessor@@AAVMMTPDataProviderFramework@@AAVMMTPConnection@@@Z @ 40 NONAME ; class MMTPRequestProcessor * CMTPGetObjectPropDesc::NewL(class MMTPDataProviderFramework &, class MMTPConnection &)
	??1CMTPSetReferences@@UAE@XZ @ 41 NONAME ; CMTPSetReferences::~CMTPSetReferences(void)
	?DoHandleResponsePhaseL@CMTPRequestProcessor@@MAEHXZ @ 42 NONAME ; int CMTPRequestProcessor::DoHandleResponsePhaseL(void)
	?OpenL@RMTPDpSingletons@@QAEXAAVMMTPDataProviderFramework@@@Z @ 43 NONAME ; void RMTPDpSingletons::OpenL(class MMTPDataProviderFramework &)
	?GetPropertyL@CMTPPropertyStore@@QAEHABVTMTPTypeUint32@@W4TMTPObjectPropertyCode@@AAG@Z @ 44 NONAME ABSENT ; int CMTPPropertyStore::GetPropertyL(class TMTPTypeUint32 const &, enum TMTPObjectPropertyCode, unsigned short &)
	??1CMTPGetReferences@@UAE@XZ @ 45 NONAME ; CMTPGetReferences::~CMTPGetReferences(void)
	?SetPropertyL@CMTPPropertyStore@@QAEHABVTMTPTypeUint32@@W4TMTPObjectPropertyCode@@G@Z @ 46 NONAME ABSENT ; int CMTPPropertyStore::SetPropertyL(class TMTPTypeUint32 const &, enum TMTPObjectPropertyCode, unsigned short)
	?CheckRequestL@CMTPRequestProcessor@@MAE?AW4TMTPResponseCode@@XZ @ 47 NONAME ; enum TMTPResponseCode CMTPRequestProcessor::CheckRequestL(void)
	?GetPropertyByIdL@CMTPPropertyStore@@QAEHAB_KW4TMTPObjectPropertyCode@@AAG@Z @ 48 NONAME ABSENT ; int CMTPPropertyStore::GetPropertyByIdL(unsigned long long const &, enum TMTPObjectPropertyCode, unsigned short &)
	?Connection@CMTPRequestProcessor@@MBEAAVMMTPConnection@@XZ @ 49 NONAME ; class MMTPConnection & CMTPRequestProcessor::Connection(void) const
	??1CMTPGetObjectPropsSupported@@UAE@XZ @ 50 NONAME ; CMTPGetObjectPropsSupported::~CMTPGetObjectPropsSupported(void)
	?NewL@CMTPGetObjectInfo@@SAPAVMMTPRequestProcessor@@AAVMMTPDataProviderFramework@@AAVMMTPConnection@@@Z @ 51 NONAME ; class MMTPRequestProcessor * CMTPGetObjectInfo::NewL(class MMTPDataProviderFramework &, class MMTPConnection &)
	?RunL@CMTPRequestProcessor@@MAEXXZ @ 52 NONAME ; void CMTPRequestProcessor::RunL(void)
	??1CMTPObjectPropertyMgr@@UAE@XZ @ 53 NONAME ABSENT ; CMTPObjectPropertyMgr::~CMTPObjectPropertyMgr(void)
	?PropertyStore@RMTPDpSingletons@@QBEAAVCMTPPropertyStore@@XZ @ 54 NONAME ABSENT ; class CMTPPropertyStore & RMTPDpSingletons::PropertyStore(void) const
	?NewL@CMTPGetObjectPropsSupported@@SAPAVMMTPRequestProcessor@@AAVMMTPDataProviderFramework@@AAVMMTPConnection@@@Z @ 55 NONAME ; class MMTPRequestProcessor * CMTPGetObjectPropsSupported::NewL(class MMTPDataProviderFramework &, class MMTPConnection &)
	??1CMTPGetObjectPropList@@UAE@XZ @ 56 NONAME ; CMTPGetObjectPropList::~CMTPGetObjectPropList(void)
	?GetPropertyL@CMTPPropertyStore@@QAEHABVTMTPTypeUint32@@W4TMTPObjectPropertyCode@@AAK@Z @ 57 NONAME ABSENT ; int CMTPPropertyStore::GetPropertyL(class TMTPTypeUint32 const &, enum TMTPObjectPropertyCode, unsigned long &)
	?SetPropertyL@CMTPPropertyStore@@QAEHABVTMTPTypeUint32@@W4TMTPObjectPropertyCode@@K@Z @ 58 NONAME ABSENT ; int CMTPPropertyStore::SetPropertyL(class TMTPTypeUint32 const &, enum TMTPObjectPropertyCode, unsigned long)
	?SetCurrentObjectL@CMTPObjectPropertyMgr@@QAEXPAVCMTPObjectMetaData@@H@Z @ 59 NONAME ABSENT ; void CMTPObjectPropertyMgr::SetCurrentObjectL(class CMTPObjectMetaData *, int)
	?NewL@CMTPCopyObject@@SAPAVMMTPRequestProcessor@@AAVMMTPDataProviderFramework@@AAVMMTPConnection@@@Z @ 60 NONAME ; class MMTPRequestProcessor * CMTPCopyObject::NewL(class MMTPDataProviderFramework &, class MMTPConnection &)
	?NewL@CMTPGetReferences@@SAPAVMMTPRequestProcessor@@AAVMMTPDataProviderFramework@@AAVMMTPConnection@@@Z @ 61 NONAME ; class MMTPRequestProcessor * CMTPGetReferences::NewL(class MMTPDataProviderFramework &, class MMTPConnection &)
	??1CMTPMoveObject@@UAE@XZ @ 62 NONAME ; CMTPMoveObject::~CMTPMoveObject(void)
	?GetPropertyL@CMTPObjectPropertyMgr@@QAE?AW4TMTPResponseCode@@W4TMTPObjectPropertyCode@@AA_K@Z @ 63 NONAME ABSENT ; enum TMTPResponseCode CMTPObjectPropertyMgr::GetPropertyL(enum TMTPObjectPropertyCode, unsigned long long &)
	?SetPropertyL@CMTPPropertyStore@@QAEHABVTMTPTypeUint32@@W4TMTPObjectPropertyCode@@ABVTDesC16@@@Z @ 64 NONAME ABSENT ; int CMTPPropertyStore::SetPropertyL(class TMTPTypeUint32 const &, enum TMTPObjectPropertyCode, class TDesC16 const &)
	?NewL@CMTPMoveObject@@SAPAVMMTPRequestProcessor@@AAVMMTPDataProviderFramework@@AAVMMTPConnection@@@Z @ 65 NONAME ; class MMTPRequestProcessor * CMTPMoveObject::NewL(class MMTPDataProviderFramework &, class MMTPConnection &)
	?SetPropertyL@CMTPPropertyStore@@QAEHABVTMTPTypeUint32@@W4TMTPObjectPropertyCode@@_K@Z @ 66 NONAME ABSENT ; int CMTPPropertyStore::SetPropertyL(class TMTPTypeUint32 const &, enum TMTPObjectPropertyCode, unsigned long long)
	?SetPropertyL@CMTPObjectPropertyMgr@@QAE?AW4TMTPResponseCode@@W4TMTPObjectPropertyCode@@G@Z @ 67 NONAME ABSENT ; enum TMTPResponseCode CMTPObjectPropertyMgr::SetPropertyL(enum TMTPObjectPropertyCode, unsigned short)
	?IsFileAcceptedL@CMTPFSExclusionMgr@@UBEHABVTDesC16@@K@Z @ 68 NONAME ; int CMTPFSExclusionMgr::IsFileAcceptedL(class TDesC16 const &, unsigned long) const
	?NewL@CMTPGetObjectPropValue@@SAPAVMMTPRequestProcessor@@AAVMMTPDataProviderFramework@@AAVMMTPConnection@@@Z @ 69 NONAME ; class MMTPRequestProcessor * CMTPGetObjectPropValue::NewL(class MMTPDataProviderFramework &, class MMTPConnection &)
	?NewL@CMTPSendObjectInfo@@SAPAVMMTPRequestProcessor@@AAVMMTPDataProviderFramework@@AAVMMTPConnection@@@Z @ 70 NONAME ; class MMTPRequestProcessor * CMTPSendObjectInfo::NewL(class MMTPDataProviderFramework &, class MMTPConnection &)
	??0CMTPFSExclusionMgr@@IAE@AAVMMTPDataProviderFramework@@@Z @ 71 NONAME ; CMTPFSExclusionMgr::CMTPFSExclusionMgr(class MMTPDataProviderFramework &)
	?GetPropertyL@CMTPObjectPropertyMgr@@QAE?AW4TMTPResponseCode@@W4TMTPObjectPropertyCode@@AAE@Z @ 72 NONAME ABSENT ; enum TMTPResponseCode CMTPObjectPropertyMgr::GetPropertyL(enum TMTPObjectPropertyCode, unsigned char &)
	?NewL@CMTPObjectPropertyMgr@@SAPAV1@AAVMMTPDataProviderFramework@@@Z @ 73 NONAME ABSENT ; class CMTPObjectPropertyMgr * CMTPObjectPropertyMgr::NewL(class MMTPDataProviderFramework &)
	?GetPropertyL@CMTPObjectPropertyMgr@@QAE?AW4TMTPResponseCode@@W4TMTPObjectPropertyCode@@AAVTMTPTypeUint128@@@Z @ 74 NONAME ABSENT ; enum TMTPResponseCode CMTPObjectPropertyMgr::GetPropertyL(enum TMTPObjectPropertyCode, class TMTPTypeUint128 &)
	?SetPropertyL@CMTPObjectPropertyMgr@@QAE?AW4TMTPResponseCode@@W4TMTPObjectPropertyCode@@K@Z @ 75 NONAME ABSENT ; enum TMTPResponseCode CMTPObjectPropertyMgr::SetPropertyL(enum TMTPObjectPropertyCode, unsigned long)
	??0CMTPRequestUnknown@@IAE@AAVMMTPDataProviderFramework@@AAVMMTPConnection@@@Z @ 76 NONAME ; CMTPRequestUnknown::CMTPRequestUnknown(class MMTPDataProviderFramework &, class MMTPConnection &)
	?GetObjectInfo@CMTPRequestChecker@@QBEPAVCMTPObjectMetaData@@K@Z @ 77 NONAME ; class CMTPObjectMetaData * CMTPRequestChecker::GetObjectInfo(unsigned long) const
	?DoHandleRToIPhaseL@CMTPRequestProcessor@@MAEHXZ @ 78 NONAME ; int CMTPRequestProcessor::DoHandleRToIPhaseL(void)
	?HandleRequestL@CMTPRequestProcessor@@MAEHABVTMTPTypeRequest@@W4TMTPTransactionPhase@@@Z @ 79 NONAME ; int CMTPRequestProcessor::HandleRequestL(class TMTPTypeRequest const &, enum TMTPTransactionPhase)
	?AddBatchedInsertL@CMTPPropertyStore@@QAEXABVTBatchedEntry@1@@Z @ 80 NONAME ABSENT ; void CMTPPropertyStore::AddBatchedInsertL(class CMTPPropertyStore::TBatchedEntry const &)
	??1CMTPSetObjectPropValue@@UAE@XZ @ 81 NONAME ; CMTPSetObjectPropValue::~CMTPSetObjectPropValue(void)
	??1CMTPGetObjectInfo@@UAE@XZ @ 82 NONAME ; CMTPGetObjectInfo::~CMTPGetObjectInfo(void)
	??0CMTPRequestProcessor@@IAE@AAVMMTPDataProviderFramework@@AAVMMTPConnection@@HPBUTMTPRequestElementInfo@@@Z @ 83 NONAME ; CMTPRequestProcessor::CMTPRequestProcessor(class MMTPDataProviderFramework &, class MMTPConnection &, int, struct TMTPRequestElementInfo const *)
	?SetPropertyL@CMTPObjectPropertyMgr@@QAE?AW4TMTPResponseCode@@W4TMTPObjectPropertyCode@@_K@Z @ 84 NONAME ABSENT ; enum TMTPResponseCode CMTPObjectPropertyMgr::SetPropertyL(enum TMTPObjectPropertyCode, unsigned long long)
	?DoHandleCompletingPhaseL@CMTPRequestProcessor@@MAEHXZ @ 85 NONAME ; int CMTPRequestProcessor::DoHandleCompletingPhaseL(void)
	?Match@CMTPRequestProcessor@@MBEHABVTMTPTypeEvent@@AAVMMTPConnection@@@Z @ 86 NONAME ; int CMTPRequestProcessor::Match(class TMTPTypeEvent const &, class MMTPConnection &) const
	?DeletePropertiesL@CMTPPropertyStore@@QAEXAB_K@Z @ 87 NONAME ABSENT ; void CMTPPropertyStore::DeletePropertiesL(unsigned long long const &)
	?DoCancel@CMTPRequestProcessor@@MAEXXZ @ 88 NONAME ; void CMTPRequestProcessor::DoCancel(void)
	?DoHandleRequestPhaseL@CMTPRequestProcessor@@MAEHXZ @ 89 NONAME ; int CMTPRequestProcessor::DoHandleRequestPhaseL(void)
	?NewL@CMTPSetObjectPropValue@@SAPAVMMTPRequestProcessor@@AAVMMTPDataProviderFramework@@AAVMMTPConnection@@@Z @ 90 NONAME ; class MMTPRequestProcessor * CMTPSetObjectPropValue::NewL(class MMTPDataProviderFramework &, class MMTPConnection &)
	?DeletePropertiesByStorageIdL@CMTPPropertyStore@@QAEXK@Z @ 91 NONAME ABSENT ; void CMTPPropertyStore::DeletePropertiesByStorageIdL(unsigned long)
	?IsPathAcceptedL@CMTPFSExclusionMgr@@IBEHABVTDesC16@@K@Z @ 92 NONAME ; int CMTPFSExclusionMgr::IsPathAcceptedL(class TDesC16 const &, unsigned long) const
	??1CMTPSetObjectPropList@@UAE@XZ @ 93 NONAME ; CMTPSetObjectPropList::~CMTPSetObjectPropList(void)
	?Release@CMTPRequestProcessor@@MAEXXZ @ 94 NONAME ; void CMTPRequestProcessor::Release(void)
	??1CMTPFSExclusionMgr@@UAE@XZ @ 95 NONAME ; CMTPFSExclusionMgr::~CMTPFSExclusionMgr(void)
	?GetPropertyL@CMTPPropertyStore@@QAEHABVTMTPTypeUint32@@W4TMTPObjectPropertyCode@@AAE@Z @ 96 NONAME ABSENT ; int CMTPPropertyStore::GetPropertyL(class TMTPTypeUint32 const &, enum TMTPObjectPropertyCode, unsigned char &)
	?SetPropertyL@CMTPPropertyStore@@QAEHABVTMTPTypeUint32@@W4TMTPObjectPropertyCode@@E@Z @ 97 NONAME ABSENT ; int CMTPPropertyStore::SetPropertyL(class TMTPTypeUint32 const &, enum TMTPObjectPropertyCode, unsigned char)
	?NewL@CMTPPropertyStore@@SAPAV1@AAVMMTPDataProviderFramework@@@Z @ 98 NONAME ABSENT ; class CMTPPropertyStore * CMTPPropertyStore::NewL(class MMTPDataProviderFramework &)
	?GetPropertyL@CMTPPropertyStore@@QAEHABVTMTPTypeUint32@@W4TMTPObjectPropertyCode@@AAVCMTPTypeString@@@Z @ 99 NONAME ABSENT ; int CMTPPropertyStore::GetPropertyL(class TMTPTypeUint32 const &, enum TMTPObjectPropertyCode, class CMTPTypeString &)
	?Match@CMTPRequestProcessor@@MBEHABVTMTPTypeRequest@@AAVMMTPConnection@@@Z @ 100 NONAME ; int CMTPRequestProcessor::Match(class TMTPTypeRequest const &, class MMTPConnection &) const
	?Request@CMTPRequestProcessor@@MBEABVTMTPTypeRequest@@XZ @ 101 NONAME ; class TMTPTypeRequest const & CMTPRequestProcessor::Request(void) const
	??1CMTPRequestUnknown@@UAE@XZ @ 102 NONAME ; CMTPRequestUnknown::~CMTPRequestUnknown(void)
	?ServiceL@CMTPRequestUnknown@@MAEXXZ @ 103 NONAME ; void CMTPRequestUnknown::ServiceL(void)
	??0RMTPDpSingletons@@QAE@XZ @ 104 NONAME ; RMTPDpSingletons::RMTPDpSingletons(void)
	??1CMTPGetFormatCapabilities@@UAE@XZ @ 105 NONAME ; CMTPGetFormatCapabilities::~CMTPGetFormatCapabilities(void)
	?ReceiveDataL@CMTPRequestProcessor@@IAEXAAVMMTPType@@@Z @ 106 NONAME ; void CMTPRequestProcessor::ReceiveDataL(class MMTPType &)
	?NewL@CMTPGetObjectPropList@@SAPAVMMTPRequestProcessor@@AAVMMTPDataProviderFramework@@AAVMMTPConnection@@@Z @ 107 NONAME ; class MMTPRequestProcessor * CMTPGetObjectPropList::NewL(class MMTPDataProviderFramework &, class MMTPConnection &)
	?getDpId@RMTPUtility@@QAEKABVTDesC16@@0@Z @ 108 NONAME ABSENT ; unsigned long RMTPUtility::getDpId(class TDesC16 const &, class TDesC16 const &)
	?ContainerMimeType@RMTPUtility@@QAEPAVHBufC16@@ABVTDesC16@@@Z @ 109 NONAME ; class HBufC16 * RMTPUtility::ContainerMimeType(class TDesC16 const &)
	?MTPTimeStr2TTime@RMTPUtility@@QBEHABVTDesC16@@AAVTTime@@@Z @ 110 NONAME ; int RMTPUtility::MTPTimeStr2TTime(class TDesC16 const &, class TTime &) const
	?RenameObjectL@RMTPUtility@@QAEXIABVTDesC16@@@Z @ 111 NONAME ; void RMTPUtility::RenameObjectL(unsigned int, class TDesC16 const &)
	?getFormatByExtension@RMTPUtility@@QAE?AW4TMTPFormatCode@@ABVTDesC16@@@Z @ 112 NONAME ABSENT ; enum TMTPFormatCode RMTPUtility::getFormatByExtension(class TDesC16 const &)
	?FormatExtensionMapping@RMTPUtility@@QAEXXZ @ 113 NONAME ; void RMTPUtility::FormatExtensionMapping(void)
	?FormatFromFilename@RMTPUtility@@QAE?AW4TMTPFormatCode@@ABVTDesC16@@@Z @ 114 NONAME ; enum TMTPFormatCode RMTPUtility::FormatFromFilename(class TDesC16 const &)
	?TTime2MTPTimeStr@RMTPUtility@@QBEHABVTTime@@AAVTDes16@@@Z @ 115 NONAME ; int RMTPUtility::TTime2MTPTimeStr(class TTime const &, class TDes16 &) const
	?MTPUtility@RMTPDpSingletons@@QBEAAVRMTPUtility@@XZ @ 116 NONAME ; class RMTPUtility & RMTPDpSingletons::MTPUtility(void) const
	?GetDpId@RMTPUtility@@QAEKABVTDesC16@@0@Z @ 117 NONAME ABSENT ; unsigned long RMTPUtility::GetDpId(class TDesC16 const &, class TDesC16 const &)
	?GetFormatByExtension@RMTPUtility@@QAE?AW4TMTPFormatCode@@ABVTDesC16@@@Z @ 118 NONAME ; enum TMTPFormatCode RMTPUtility::GetFormatByExtension(class TDesC16 const &)
	?SessionId@CMTPRequestProcessor@@MAEKXZ @ 119 NONAME ; unsigned long CMTPRequestProcessor::SessionId(void)
	?GetEnumerationFlag@RMTPUtility@@QAEIABVTDesC16@@@Z @ 120 NONAME ; unsigned int RMTPUtility::GetEnumerationFlag(class TDesC16 const &)
	?NewL@CMTPFullEnumDataCodeMgr@@SAPAV1@AAVMMTPDataProviderFramework@@@Z @ 121 NONAME ; class CMTPFullEnumDataCodeMgr * CMTPFullEnumDataCodeMgr::NewL(class MMTPDataProviderFramework &)
	?KnowledgeFormat@CMTPFullEnumDataCodeMgr@@QBEABVRMTPServiceFormat@@XZ @ 122 NONAME ; class RMTPServiceFormat const & CMTPFullEnumDataCodeMgr::KnowledgeFormat(void) const
	?NewL@CMTPSvcSetServicePropList@@SAPAVMMTPRequestProcessor@@AAVMMTPDataProviderFramework@@AAVMMTPConnection@@AAVMMTPServiceDataProvider@@@Z @ 123 NONAME ; class MMTPRequestProcessor * CMTPSvcSetServicePropList::NewL(class MMTPDataProviderFramework &, class MMTPConnection &, class MMTPServiceDataProvider &)
	?NewL@CMTPSvcDeleteObject@@SAPAVMMTPRequestProcessor@@AAVMMTPDataProviderFramework@@AAVMMTPConnection@@AAVMMTPServiceDataProvider@@@Z @ 124 NONAME ; class MMTPRequestProcessor * CMTPSvcDeleteObject::NewL(class MMTPDataProviderFramework &, class MMTPConnection &, class MMTPServiceDataProvider &)
	??1CMTPSvcGetServicePropDesc@@UAE@XZ @ 125 NONAME ; CMTPSvcGetServicePropDesc::~CMTPSvcGetServicePropDesc(void)
	?CheckGenObjectPropertyL@MMTPSvcObjectHandler@@IBE?AW4TMTPResponseCode@@ABVCMTPTypeObjectPropListElement@@W4TMTPOperationCode@@@Z @ 126 NONAME ; enum TMTPResponseCode MMTPSvcObjectHandler::CheckGenObjectPropertyL(class CMTPTypeObjectPropListElement const &, enum TMTPOperationCode) const
	?GetServicePropetyL@CMTPFullEnumServiceHandler@@QBE?AW4TMTPResponseCode@@GAAVCMTPTypeServicePropList@@@Z @ 127 NONAME ; enum TMTPResponseCode CMTPFullEnumServiceHandler::GetServicePropetyL(unsigned short, class CMTPTypeServicePropList &) const
	?ServiceID@MMTPServiceDataProvider@@UBEKXZ @ 128 NONAME ; unsigned long MMTPServiceDataProvider::ServiceID(void) const
	?NewL@CMTPSvcGetObjectPropList@@SAPAVMMTPRequestProcessor@@AAVMMTPDataProviderFramework@@AAVMMTPConnection@@AAVMMTPServiceDataProvider@@@Z @ 129 NONAME ; class MMTPRequestProcessor * CMTPSvcGetObjectPropList::NewL(class MMTPDataProviderFramework &, class MMTPConnection &, class MMTPServiceDataProvider &)
	?DeleteServiceProperty@CMTPFullEnumServiceHandler@@QAE?AW4TMTPResponseCode@@G@Z @ 130 NONAME ; enum TMTPResponseCode CMTPFullEnumServiceHandler::DeleteServiceProperty(unsigned short)
	??1CMTPSvcDeleteObject@@UAE@XZ @ 131 NONAME ; CMTPSvcDeleteObject::~CMTPSvcDeleteObject(void)
	?GetSevicePropCodesL@CMTPFullEnumDataCodeMgr@@QBEXAAV?$RArray@K@@@Z @ 132 NONAME ; void CMTPFullEnumDataCodeMgr::GetSevicePropCodesL(class RArray<unsigned long> &) const
	?NewL@CMTPSvcGetServicePropList@@SAPAVMMTPRequestProcessor@@AAVMMTPDataProviderFramework@@AAVMMTPConnection@@AAVMMTPServiceDataProvider@@@Z @ 133 NONAME ; class MMTPRequestProcessor * CMTPSvcGetServicePropList::NewL(class MMTPDataProviderFramework &, class MMTPConnection &, class MMTPServiceDataProvider &)
	?SetObjectReferenceL@MMTPSvcObjectHandler@@UAE?AW4TMTPResponseCode@@ABVCMTPObjectMetaData@@ABVCMTPTypeArray@@@Z @ 134 NONAME ; enum TMTPResponseCode MMTPSvcObjectHandler::SetObjectReferenceL(class CMTPObjectMetaData const &, class CMTPTypeArray const &)
	?ServicePropertyInfo@CMTPFullEnumDataCodeMgr@@QBEPBVTMTPServicePropertyInfo@@G@Z @ 135 NONAME ; class TMTPServicePropertyInfo const * CMTPFullEnumDataCodeMgr::ServicePropertyInfo(unsigned short) const
	?NewL@CMTPSvcGetServiceCapabilities@@SAPAVMMTPRequestProcessor@@AAVMMTPDataProviderFramework@@AAVMMTPConnection@@AAVMMTPServiceDataProvider@@@Z @ 136 NONAME ; class MMTPRequestProcessor * CMTPSvcGetServiceCapabilities::NewL(class MMTPDataProviderFramework &, class MMTPConnection &, class MMTPServiceDataProvider &)
	??1CMTPSvcCompoundProcessor@@UAE@XZ @ 137 NONAME ; CMTPSvcCompoundProcessor::~CMTPSvcCompoundProcessor(void)
	??1CMTPSvcGetServiceInfo@@UAE@XZ @ 138 NONAME ; CMTPSvcGetServiceInfo::~CMTPSvcGetServiceInfo(void)
	?ServiceID@CMTPFullEnumDataCodeMgr@@QBEIXZ @ 139 NONAME ; unsigned int CMTPFullEnumDataCodeMgr::ServiceID(void) const
	??1CMTPSvcDeleteObjectPropList@@UAE@XZ @ 140 NONAME ; CMTPSvcDeleteObjectPropList::~CMTPSvcDeleteObjectPropList(void)
	?NewL@CMTPSvcGetObjectInfo@@SAPAVMMTPRequestProcessor@@AAVMMTPDataProviderFramework@@AAVMMTPConnection@@AAVMMTPServiceDataProvider@@@Z @ 141 NONAME ; class MMTPRequestProcessor * CMTPSvcGetObjectInfo::NewL(class MMTPDataProviderFramework &, class MMTPConnection &, class MMTPServiceDataProvider &)
	?NewL@CMTPSvcGetReferences@@SAPAVMMTPRequestProcessor@@AAVMMTPDataProviderFramework@@AAVMMTPConnection@@AAVMMTPServiceDataProvider@@@Z @ 142 NONAME ; class MMTPRequestProcessor * CMTPSvcGetReferences::NewL(class MMTPDataProviderFramework &, class MMTPConnection &, class MMTPServiceDataProvider &)
	?NewL@CMTPKnowledgeHandler@@SAPAV1@AAVMMTPDataProviderFramework@@GAAVCRepository@@ABVTDesC16@@@Z @ 143 NONAME ; class CMTPKnowledgeHandler * CMTPKnowledgeHandler::NewL(class MMTPDataProviderFramework &, unsigned short, class CRepository &, class TDesC16 const &)
	??1CMTPSvcGetStorageInfo@@UAE@XZ @ 144 NONAME ; CMTPSvcGetStorageInfo::~CMTPSvcGetStorageInfo(void)
	??1CMTPFullEnumDataCodeMgr@@UAE@XZ @ 145 NONAME ; CMTPFullEnumDataCodeMgr::~CMTPFullEnumDataCodeMgr(void)
	?SetStorageId@CMTPKnowledgeHandler@@QAEXK@Z @ 146 NONAME ; void CMTPKnowledgeHandler::SetStorageId(unsigned long)
	?ServiceGUID@CMTPFullEnumDataCodeMgr@@QBEABVTMTPTypeGuid@@XZ @ 147 NONAME ; class TMTPTypeGuid const & CMTPFullEnumDataCodeMgr::ServiceGUID(void) const
	?CommitForNewObjectL@MMTPSvcObjectHandler@@UAEXAAVTDes16@@@Z @ 148 NONAME ; void MMTPSvcObjectHandler::CommitForNewObjectL(class TDes16 &)
	?RollBack@MMTPSvcObjectHandler@@UAEXXZ @ 149 NONAME ; void MMTPSvcObjectHandler::RollBack(void)
	?GetServicePropDescL@CMTPFullEnumServiceHandler@@QBE?AW4TMTPResponseCode@@GAAVCMTPTypeServicePropDescList@@@Z @ 150 NONAME ; enum TMTPResponseCode CMTPFullEnumServiceHandler::GetServicePropDescL(unsigned short, class CMTPTypeServicePropDescList &) const
	?SaveServicePropValue@MMTPServiceHandler@@SA?AW4TMTPResponseCode@@AAVCRepository@@IAAVTMTPTypeGuid@@@Z @ 151 NONAME ; enum TMTPResponseCode MMTPServiceHandler::SaveServicePropValue(class CRepository &, unsigned int, class TMTPTypeGuid &)
	??1CMTPSvcGetObject@@UAE@XZ @ 152 NONAME ; CMTPSvcGetObject::~CMTPSvcGetObject(void)
	?GenerateSvcObjPropertyLC@MMTPServiceHandler@@SAPAVCMTPTypeObjectPropDesc@@IABVTMTPTypeGuid@@IABVTDesC16@@EPBVMMTPType@@W4TMTPObjectPropDescGetSet@2@GK@Z @ 153 NONAME ; class CMTPTypeObjectPropDesc * MMTPServiceHandler::GenerateSvcObjPropertyLC(unsigned int, class TMTPTypeGuid const &, unsigned int, class TDesC16 const &, unsigned char, class MMTPType const *, enum CMTPTypeObjectPropDesc::TMTPObjectPropDescGetSet, unsigned short, unsigned long)
	?SetServicePropetyL@CMTPFullEnumServiceHandler@@QAE?AW4TMTPResponseCode@@GABVCMTPTypeServicePropListElement@@@Z @ 154 NONAME ; enum TMTPResponseCode CMTPFullEnumServiceHandler::SetServicePropetyL(unsigned short, class CMTPTypeServicePropListElement const &)
	?GenerateSvcObjPropertyL@MMTPServiceHandler@@SAPAVCMTPTypeObjectPropDesc@@IABVTMTPTypeGuid@@IABVTDesC16@@EPBVMMTPType@@W4TMTPObjectPropDescGetSet@2@GK@Z @ 155 NONAME ; class CMTPTypeObjectPropDesc * MMTPServiceHandler::GenerateSvcObjPropertyL(unsigned int, class TMTPTypeGuid const &, unsigned int, class TDesC16 const &, unsigned char, class MMTPType const *, enum CMTPTypeObjectPropDesc::TMTPObjectPropDescGetSet, unsigned short, unsigned long)
	?NewL@CMTPSvcDeleteServicePropList@@SAPAVMMTPRequestProcessor@@AAVMMTPDataProviderFramework@@AAVMMTPConnection@@AAVMMTPServiceDataProvider@@@Z @ 156 NONAME ; class MMTPRequestProcessor * CMTPSvcDeleteServicePropList::NewL(class MMTPDataProviderFramework &, class MMTPConnection &, class MMTPServiceDataProvider &)
	?GetServiceCapabilityL@CMTPFullEnumServiceHandler@@QBE?AW4TMTPResponseCode@@GAAVCMTPTypeServiceCapabilityList@@@Z @ 157 NONAME ; enum TMTPResponseCode CMTPFullEnumServiceHandler::GetServiceCapabilityL(unsigned short, class CMTPTypeServiceCapabilityList &) const
	?LinearOrderServicePropOrder@TMTPServicePropertyInfo@@SAHABV1@0@Z @ 158 NONAME ; int TMTPServicePropertyInfo::LinearOrderServicePropOrder(class TMTPServicePropertyInfo const &, class TMTPServicePropertyInfo const &)
	?OperationGranularity@MMTPServiceDataProvider@@UBEKXZ @ 159 NONAME ; unsigned long MMTPServiceDataProvider::OperationGranularity(void) const
	??1CMTPFullEnumServiceHandler@@UAE@XZ @ 160 NONAME ; CMTPFullEnumServiceHandler::~CMTPFullEnumServiceHandler(void)
	?GetObjectReferenceL@MMTPSvcObjectHandler@@UAE?AW4TMTPResponseCode@@ABVCMTPObjectMetaData@@AAVCMTPTypeArray@@@Z @ 161 NONAME ; enum TMTPResponseCode MMTPSvcObjectHandler::GetObjectReferenceL(class CMTPObjectMetaData const &, class CMTPTypeArray &)
	??1CMTPSvcGetServicePropList@@UAE@XZ @ 162 NONAME ; CMTPSvcGetServicePropList::~CMTPSvcGetServicePropList(void)
	?IsValidServicePropCodeL@MMTPServiceDataProvider@@UBEHG@Z @ 163 NONAME ; int MMTPServiceDataProvider::IsValidServicePropCodeL(unsigned short) const
	?ServiceHandler@MMTPServiceDataProvider@@UBEPAVMMTPServiceHandler@@XZ @ 164 NONAME ; class MMTPServiceHandler * MMTPServiceDataProvider::ServiceHandler(void) const
	?NewL@CMTPSvcDeleteObjectPropList@@SAPAVMMTPRequestProcessor@@AAVMMTPDataProviderFramework@@AAVMMTPConnection@@AAVMMTPServiceDataProvider@@@Z @ 165 NONAME ; class MMTPRequestProcessor * CMTPSvcDeleteObjectPropList::NewL(class MMTPDataProviderFramework &, class MMTPConnection &, class MMTPServiceDataProvider &)
	?NewL@CMTPSvcSetObjectPropList@@SAPAVMMTPRequestProcessor@@AAVMMTPDataProviderFramework@@AAVMMTPConnection@@AAVMMTPServiceDataProvider@@@Z @ 166 NONAME ; class MMTPRequestProcessor * CMTPSvcSetObjectPropList::NewL(class MMTPDataProviderFramework &, class MMTPConnection &, class MMTPServiceDataProvider &)
	??1CMTPSvcSetServicePropList@@UAE@XZ @ 167 NONAME ; CMTPSvcSetServicePropList::~CMTPSvcSetServicePropList(void)
	?NewL@CMTPSvcCompoundProcessor@@SAPAVMMTPRequestProcessor@@AAVMMTPDataProviderFramework@@AAVMMTPConnection@@AAVMMTPServiceDataProvider@@@Z @ 168 NONAME ; class MMTPRequestProcessor * CMTPSvcCompoundProcessor::NewL(class MMTPDataProviderFramework &, class MMTPConnection &, class MMTPServiceDataProvider &)
	?NewL@CMTPSvcGetObject@@SAPAVMMTPRequestProcessor@@AAVMMTPDataProviderFramework@@AAVMMTPConnection@@AAVMMTPServiceDataProvider@@@Z @ 169 NONAME ; class MMTPRequestProcessor * CMTPSvcGetObject::NewL(class MMTPDataProviderFramework &, class MMTPConnection &, class MMTPServiceDataProvider &)
	?LinearOrderServicePropOrder@TMTPServicePropertyInfo@@SAHPBGABV1@@Z @ 170 NONAME ; int TMTPServicePropertyInfo::LinearOrderServicePropOrder(unsigned short const *, class TMTPServicePropertyInfo const &)
	?ReleaseObjectBuffer@MMTPSvcObjectHandler@@UAEXXZ @ 171 NONAME ; void MMTPSvcObjectHandler::ReleaseObjectBuffer(void)
	??1CMTPSvcGetServiceCapabilities@@UAE@XZ @ 172 NONAME ; CMTPSvcGetServiceCapabilities::~CMTPSvcGetServiceCapabilities(void)
	??1CMTPSvcSetReferences@@UAE@XZ @ 173 NONAME ; CMTPSvcSetReferences::~CMTPSvcSetReferences(void)
	??1CMTPSvcGetObjectInfo@@UAE@XZ @ 174 NONAME ; CMTPSvcGetObjectInfo::~CMTPSvcGetObjectInfo(void)
	??1CMTPSvcDeleteServicePropList@@UAE@XZ @ 175 NONAME ; CMTPSvcDeleteServicePropList::~CMTPSvcDeleteServicePropList(void)
	??1CMTPSvcGetObjectPropList@@UAE@XZ @ 176 NONAME ; CMTPSvcGetObjectPropList::~CMTPSvcGetObjectPropList(void)
	??1CMTPKnowledgeHandler@@UAE@XZ @ 177 NONAME ; CMTPKnowledgeHandler::~CMTPKnowledgeHandler(void)
	?GenerateGenericObjectPropDescLC@MMTPServiceHandler@@SAPAVCMTPTypeObjectPropDesc@@G@Z @ 178 NONAME ; class CMTPTypeObjectPropDesc * MMTPServiceHandler::GenerateGenericObjectPropDescLC(unsigned short)
	?NewL@CMTPFullEnumServiceHandler@@SAPAV1@AAVMMTPDataProviderFramework@@ABVCMTPFullEnumDataCodeMgr@@AAVCRepository@@IABVTDesC16@@ABVTMTPTypeGuid@@@Z @ 179 NONAME ; class CMTPFullEnumServiceHandler * CMTPFullEnumServiceHandler::NewL(class MMTPDataProviderFramework &, class CMTPFullEnumDataCodeMgr const &, class CRepository &, unsigned int, class TDesC16 const &, class TMTPTypeGuid const &)
	?CopyObject@MMTPSvcObjectHandler@@UAE?AW4TMTPResponseCode@@ABVCMTPObjectMetaData@@KK@Z @ 180 NONAME ; enum TMTPResponseCode MMTPSvcObjectHandler::CopyObject(class CMTPObjectMetaData const &, unsigned long, unsigned long)
	?GetObjectInfoL@MMTPSvcObjectHandler@@UAE?AW4TMTPResponseCode@@ABVCMTPObjectMetaData@@AAVCMTPTypeObjectInfo@@@Z @ 181 NONAME ; enum TMTPResponseCode MMTPSvcObjectHandler::GetObjectInfoL(class CMTPObjectMetaData const &, class CMTPTypeObjectInfo &)
	??1CMTPSvcGetReferences@@UAE@XZ @ 182 NONAME ; CMTPSvcGetReferences::~CMTPSvcGetReferences(void)
	?MoveObject@MMTPSvcObjectHandler@@UAE?AW4TMTPResponseCode@@ABVCMTPObjectMetaData@@KK@Z @ 183 NONAME ; enum TMTPResponseCode MMTPSvcObjectHandler::MoveObject(class CMTPObjectMetaData const &, unsigned long, unsigned long)
	??1CMTPSvcSetObjectPropList@@UAE@XZ @ 184 NONAME ; CMTPSvcSetObjectPropList::~CMTPSvcSetObjectPropList(void)
	?FormatRelation@RMTPServiceFormat@@SAHPBGABV1@@Z @ 185 NONAME ; int RMTPServiceFormat::FormatRelation(unsigned short const *, class RMTPServiceFormat const &)
	?SaveServicePropValue@MMTPServiceHandler@@SA?AW4TMTPResponseCode@@AAVCRepository@@IH@Z @ 186 NONAME ; enum TMTPResponseCode MMTPServiceHandler::SaveServicePropValue(class CRepository &, unsigned int, int)
	?NewL@CMTPSvcGetStorageInfo@@SAPAVMMTPRequestProcessor@@AAVMMTPDataProviderFramework@@AAVMMTPConnection@@AAVMMTPServiceDataProvider@@@Z @ 187 NONAME ; class MMTPRequestProcessor * CMTPSvcGetStorageInfo::NewL(class MMTPDataProviderFramework &, class MMTPConnection &, class MMTPServiceDataProvider &)
	?NewL@CMTPSvcGetServiceInfo@@SAPAVMMTPRequestProcessor@@AAVMMTPDataProviderFramework@@AAVMMTPConnection@@AAVMMTPServiceDataProvider@@@Z @ 188 NONAME ; class MMTPRequestProcessor * CMTPSvcGetServiceInfo::NewL(class MMTPDataProviderFramework &, class MMTPConnection &, class MMTPServiceDataProvider &)
	??1RMTPServiceFormat@@QAE@XZ @ 189 NONAME ; RMTPServiceFormat::~RMTPServiceFormat(void)
	?NewL@CMTPSvcGetServicePropDesc@@SAPAVMMTPRequestProcessor@@AAVMMTPDataProviderFramework@@AAVMMTPConnection@@AAVMMTPServiceDataProvider@@@Z @ 190 NONAME ; class MMTPRequestProcessor * CMTPSvcGetServicePropDesc::NewL(class MMTPDataProviderFramework &, class MMTPConnection &, class MMTPServiceDataProvider &)
	?GetObjectSuidL@CMTPKnowledgeHandler@@QBEXAAVTDes16@@@Z @ 191 NONAME ; void CMTPKnowledgeHandler::GetObjectSuidL(class TDes16 &) const
	?NewL@CMTPSvcSetReferences@@SAPAVMMTPRequestProcessor@@AAVMMTPDataProviderFramework@@AAVMMTPConnection@@AAVMMTPServiceDataProvider@@@Z @ 192 NONAME ; class MMTPRequestProcessor * CMTPSvcSetReferences::NewL(class MMTPDataProviderFramework &, class MMTPConnection &, class MMTPServiceDataProvider &)
	?CommitL@MMTPSvcObjectHandler@@UAEXXZ @ 193 NONAME ; void MMTPSvcObjectHandler::CommitL(void)
	?SendObjectInfoL@MMTPSvcObjectHandler@@UAE?AW4TMTPResponseCode@@ABVCMTPTypeObjectInfo@@AAKAAVTDes16@@@Z @ 194 NONAME ; enum TMTPResponseCode MMTPSvcObjectHandler::SendObjectInfoL(class CMTPTypeObjectInfo const &, unsigned long &, class TDes16 &)
	??1CMTPCommonRequestProcessor@@UAE@XZ @ 195 NONAME ; CMTPCommonRequestProcessor::~CMTPCommonRequestProcessor(void)
	?NewL@CMTPCommonRequestProcessor@@SAPAVMMTPRequestProcessor@@AAVMMTPDataProviderFramework@@AAVMMTPConnection@@W4TMTPResponseCode@@H@Z @ 196 NONAME ; class MMTPRequestProcessor * CMTPCommonRequestProcessor::NewL(class MMTPDataProviderFramework &, class MMTPConnection &, enum TMTPResponseCode, int)
	?NewL@CMTPGetPartialObject@@SAPAVMMTPRequestProcessor@@AAVMMTPDataProviderFramework@@AAVMMTPConnection@@@Z @ 197 NONAME ; class MMTPRequestProcessor * CMTPGetPartialObject::NewL(class MMTPDataProviderFramework &, class MMTPConnection &)
	??1CMTPGetPartialObject@@UAE@XZ @ 198 NONAME ; CMTPGetPartialObject::~CMTPGetPartialObject(void)
	?NewL@CMTPSetObjectProtection@@SAPAVMMTPRequestProcessor@@AAVMMTPDataProviderFramework@@AAVMMTPConnection@@@Z @ 199 NONAME ; class MMTPRequestProcessor * CMTPSetObjectProtection::NewL(class MMTPDataProviderFramework &, class MMTPConnection &)
	??1CMTPSetObjectProtection@@UAE@XZ @ 200 NONAME ; CMTPSetObjectProtection::~CMTPSetObjectProtection(void)
	?NewL@CMTPGetInterDependentPropDesc@@SAPAVMMTPRequestProcessor@@AAVMMTPDataProviderFramework@@AAVMMTPConnection@@@Z @ 201 NONAME ; class MMTPRequestProcessor * CMTPGetInterDependentPropDesc::NewL(class MMTPDataProviderFramework &, class MMTPConnection &)
	??1CMTPGetInterDependentPropDesc@@UAE@XZ @ 202 NONAME ; CMTPGetInterDependentPropDesc::~CMTPGetInterDependentPropDesc(void)
	?StartL@CMTPFSEnumerator@@QAEXKH@Z @ 203 NONAME ; void CMTPFSEnumerator::StartL(unsigned long, int)
	?SetFileEntry@CMTPFSEntryCache@@QAEXABVTEntry@@@Z @ 204 NONAME ; void CMTPFSEntryCache::SetFileEntry(class TEntry const &)
	??1CMTPFSEntryCache@@UAE@XZ @ 205 NONAME ; CMTPFSEntryCache::~CMTPFSEntryCache(void)
	?SetOnGoing@CMTPFSEntryCache@@QAEXH@Z @ 206 NONAME ; void CMTPFSEntryCache::SetOnGoing(int)
	?MovingBigFileCache@RMTPDpSingletons@@QBEAAVCMTPFSEntryCache@@XZ @ 207 NONAME ; class CMTPFSEntryCache & RMTPDpSingletons::MovingBigFileCache(void) const
	?CopyingBigFileCache@RMTPDpSingletons@@QBEAAVCMTPFSEntryCache@@XZ @ 208 NONAME ; class CMTPFSEntryCache & RMTPDpSingletons::CopyingBigFileCache(void) const
	?IsOnGoing@CMTPFSEntryCache@@QBEHXZ @ 209 NONAME ; int CMTPFSEntryCache::IsOnGoing(void) const
	?SetTargetHandle@CMTPFSEntryCache@@QAEXK@Z @ 210 NONAME ; void CMTPFSEntryCache::SetTargetHandle(unsigned long)
	?TargetHandle@CMTPFSEntryCache@@QBEKXZ @ 211 NONAME ; unsigned long CMTPFSEntryCache::TargetHandle(void) const
	?NewL@CMTPFSEntryCache@@SAPAV1@XZ @ 212 NONAME ; class CMTPFSEntryCache * CMTPFSEntryCache::NewL(void)
	?FileEntry@CMTPFSEntryCache@@QAEAAVTEntry@@XZ @ 213 NONAME ; class TEntry & CMTPFSEntryCache::FileEntry(void)
	?RegisterPendingRequest@CMTPRequestProcessor@@IAEXI@Z @ 214 NONAME ; void CMTPRequestProcessor::RegisterPendingRequest(unsigned int)
	?GetDpIdL@RMTPUtility@@QAEKABVTDesC16@@0@Z @ 215 NONAME ; unsigned long RMTPUtility::GetDpIdL(class TDesC16 const &, class TDesC16 const &)
	?GetSubFormatCodeL@RMTPUtility@@QAEGABVTDesC16@@0@Z @ 216 NONAME ; unsigned short RMTPUtility::GetSubFormatCodeL(class TDesC16 const &, class TDesC16 const &)
	?GetFormatCodeByMimeTypeL@RMTPUtility@@QAE?AW4TMTPFormatCode@@ABVTDesC16@@0@Z @ 217 NONAME ; enum TMTPFormatCode RMTPUtility::GetFormatCodeByMimeTypeL(class TDesC16 const &, class TDesC16 const &)

