EXPORTS
	?NewL@CDunTransporter@@SAPAV1@PAVMDunPluginManager@@H@Z @ 1 NONAME ; class CDunTransporter * CDunTransporter::NewL(class MDunPluginManager *, int)
	?NumberOfAllocatedChannels@CDunTransporter@@QAEHXZ @ 2 NONAME ; int CDunTransporter::NumberOfAllocatedChannels(void)
	?AllocateChannelL@CDunTransporter@@QAEXPAVRComm@@VTUid@@ABVTDesC8@@HPAVMDunBufferCorrection@@@Z @ 3 NONAME ; void CDunTransporter::AllocateChannelL(class RComm *, class TUid, class TDesC8 const &, int, class MDunBufferCorrection *)
	?SetAdvertisementMonitorL@CDunTransporter@@QAEXVTUid@@PAVMDunServAdvMon@@@Z @ 4 NONAME ; void CDunTransporter::SetAdvertisementMonitorL(class TUid, class MDunServAdvMon *)
	?InitializeL@CDunTransporter@@AAEHXZ @ 5 NONAME ; int CDunTransporter::InitializeL(void)
	?AllocateChannelL@CDunTransporter@@QAEXPAVRSocket@@VTUid@@ABVTDesC8@@HAAH@Z @ 6 NONAME ; void CDunTransporter::AllocateChannelL(class RSocket *, class TUid, class TDesC8 const &, int, int &)
	?GetNumberOfAllocatedChannelsByUid@CDunTransporter@@QAEHVTUid@@@Z @ 7 NONAME ; int CDunTransporter::GetNumberOfAllocatedChannelsByUid(class TUid)
	?FreeChannel@CDunTransporter@@QAEHPAVRComm@@@Z @ 8 NONAME ; int CDunTransporter::FreeChannel(class RComm *)
	?FreeChannel@CDunTransporter@@QAEHPAVRSocket@@@Z @ 9 NONAME ; int CDunTransporter::FreeChannel(class RSocket *)
	?FreeAdvertisementMonitor@CDunTransporter@@QAEHVTUid@@PAVMDunServAdvMon@@@Z @ 10 NONAME ; int CDunTransporter::FreeAdvertisementMonitor(class TUid, class MDunServAdvMon *)
	?GetNumberOfWaitingChannelsByUid@CDunTransporter@@QAEHVTUid@@@Z @ 11 NONAME ; int CDunTransporter::GetNumberOfWaitingChannelsByUid(class TUid)
	?StopTransfers@CDunTransporter@@QAEHPAVRComm@@@Z @ 12 NONAME ; int CDunTransporter::StopTransfers(class RComm *)
	?NumberOfWaitingChannels@CDunTransporter@@QAEHXZ @ 13 NONAME ; int CDunTransporter::NumberOfWaitingChannels(void)
	?AddSkippedErrorL@CDunTransporter@@QAEXHPAVRComm@@W4TDunDirection@@@Z @ 14 NONAME ; void CDunTransporter::AddSkippedErrorL(int, class RComm *, enum TDunDirection)
	?ConnectCommsServer@CDunUtils@@SAHAAVRCommServ@@@Z @ 15 NONAME ; int CDunUtils::ConnectCommsServer(class RCommServ &)
	?IssueTransferRequestsL@CDunTransporter@@QAEXPAVRSocket@@@Z @ 16 NONAME ; void CDunTransporter::IssueTransferRequestsL(class RSocket *)
	?AddConnMonCallbackL@CDunTransporter@@QAEXPAVRSocket@@PAVMDunConnMon@@W4TDunDirection@@H@Z @ 17 NONAME ; void CDunTransporter::AddConnMonCallbackL(class RSocket *, class MDunConnMon *, enum TDunDirection, int)
	?UnInitialize@CDunTransporter@@AAEXXZ @ 18 NONAME ; void CDunTransporter::UnInitialize(void)
	?StopTransfers@CDunTransporter@@QAEHPAVRSocket@@@Z @ 19 NONAME ; int CDunTransporter::StopTransfers(class RSocket *)
	?AddSkippedErrorL@CDunTransporter@@QAEXHPAVRSocket@@W4TDunDirection@@@Z @ 20 NONAME ; void CDunTransporter::AddSkippedErrorL(int, class RSocket *, enum TDunDirection)
	?AddConnMonCallbackL@CDunTransporter@@QAEXPAVRComm@@PAVMDunConnMon@@W4TDunDirection@@H@Z @ 21 NONAME ; void CDunTransporter::AddConnMonCallbackL(class RComm *, class MDunConnMon *, enum TDunDirection, int)
	?IssueTransferRequestsL@CDunTransporter@@QAEXPAVRComm@@@Z @ 22 NONAME ; void CDunTransporter::IssueTransferRequestsL(class RComm *)
	?SetRCommBufferLength@CDunUtils@@SAHAAVRComm@@H@Z @ 23 NONAME ; int CDunUtils::SetRCommBufferLength(class RComm &, int)
	?AdvertisementStatus@CDunTransporter@@QAEHXZ @ 24 NONAME ; int CDunTransporter::AdvertisementStatus(void)

