EXPORTS
	_ZN15CNSmlDSHostItem10ConstructLEv @ 1 NONAME
	_ZN15CNSmlDSHostItem11SetMimeVerLERK6TDesC8 @ 2 NONAME
	_ZN15CNSmlDSHostItem12InternalizeLER11RReadStream @ 3 NONAME
	_ZN15CNSmlDSHostItem12SetMimeTypeLERK6TDesC8 @ 4 NONAME
	_ZN15CNSmlDSHostItem12SetParentUidEi @ 5 NONAME
	_ZN15CNSmlDSHostItem14SetFieldChangeEi @ 6 NONAME
	_ZN15CNSmlDSHostItem4NewLEv @ 7 NONAME
	_ZN15CNSmlDSHostItem5NewLCEv @ 8 NONAME
	_ZN15CNSmlDSHostItem6SetUidEi @ 9 NONAME
	_ZN15CNSmlDSHostItem7SetSizeEi @ 10 NONAME
	_ZN15CNSmlDSHostItemC1Ev @ 11 NONAME
	_ZN15CNSmlDSHostItemC2Ev @ 12 NONAME
	_ZN15CNSmlDSHostItemD0Ev @ 13 NONAME
	_ZN15CNSmlDSHostItemD1Ev @ 14 NONAME
	_ZN15CNSmlDSHostItemD2Ev @ 15 NONAME
	_ZN17CNSmlDSHostClient10CloseItemLEiRK7TDesC16Ri @ 16 NONAME
	_ZN17CNSmlDSHostClient10GetFilterLEiRK7TDesC16RK13RPointerArrayI13CSyncMLFilterERP11CNSmlFilter22TSyncMLFilterMatchTypeRi @ 17 NONAME
	_ZN17CNSmlDSHostClient10WriteItemLERK6TDesC8iRK7TDesC16Ri @ 18 NONAME
	_ZN17CNSmlDSHostClient11BeginBatchLEiRK7TDesC16Ri @ 19 NONAME
	_ZN17CNSmlDSHostClient11CommitItemLEiRK7TDesC16Ri @ 20 NONAME
	_ZN17CNSmlDSHostClient11CreateItemLERiiiRK6TDesC8S3_iRK7TDesC16S0_ @ 21 NONAME
	_ZN17CNSmlDSHostClient11DeleteItemLEiiRK7TDesC16Ri @ 22 NONAME
	_ZN17CNSmlDSHostClient11ListStoresLEP12CDesC16ArrayiRi @ 23 NONAME
	_ZN17CNSmlDSHostClient12CancelBatchLEiRK7TDesC16Ri @ 24 NONAME
	_ZN17CNSmlDSHostClient12CommitBatchLER6RArrayIiEiRK7TDesC16Ri @ 25 NONAME
	_ZN17CNSmlDSHostClient12ReplaceItemLEiiiiiRK7TDesC16Ri @ 26 NONAME
	_ZN17CNSmlDSHostClient12StoreFormatLEiRi @ 27 NONAME
	_ZN17CNSmlDSHostClient13DefaultStoreLEiRi @ 28 NONAME
	_ZN17CNSmlDSHostClient14CancelRequestLEiRK7TDesC16Ri @ 29 NONAME
	_ZN17CNSmlDSHostClient15DeleteAllItemsLEiRK7TDesC16Ri @ 30 NONAME
	_ZN17CNSmlDSHostClient15SoftDeleteItemLEiiRK7TDesC16Ri @ 31 NONAME
	_ZN17CNSmlDSHostClient15UpdateServerIdLER7TDesC16S1_Ri @ 32 NONAME
	_ZN17CNSmlDSHostClient16ResetChangeInfoLEiRK7TDesC16Ri @ 33 NONAME
	_ZN17CNSmlDSHostClient17BeginTransactionLEiRK7TDesC16Ri @ 34 NONAME
	_ZN17CNSmlDSHostClient17CommitChangeInfoLERK18MSmlDataItemUidSetiRK7TDesC16Ri @ 35 NONAME
	_ZN17CNSmlDSHostClient17CommitChangeInfoLEiRK7TDesC16Ri @ 36 NONAME
	_ZN17CNSmlDSHostClient18CommitTransactionLEiRK7TDesC16Ri @ 37 NONAME
	_ZN17CNSmlDSHostClient18RevertTransactionLEiRK7TDesC16Ri @ 38 NONAME
	_ZN17CNSmlDSHostClient20CreateDataProvidersLERK6RArrayIiERS1_ @ 39 NONAME
	_ZN17CNSmlDSHostClient23CreateAllDataProvidersLER6RArrayIiE @ 40 NONAME
	_ZN17CNSmlDSHostClient23SetRemoteMaxObjectSizeLEiiRK7TDesC16Ri @ 41 NONAME
	_ZN17CNSmlDSHostClient25SetRemoteDataStoreFormatLERK11CNSmlDbCapsiRK7TDesC16Ri @ 42 NONAME
	_ZN17CNSmlDSHostClient4NewLEv @ 43 NONAME
	_ZN17CNSmlDSHostClient5NewLCEv @ 44 NONAME
	_ZN17CNSmlDSHostClient5OpenLEiRK7TDesC16S2_S2_Ri @ 45 NONAME
	_ZN17CNSmlDSHostClient9MoveItemLEiiiRK7TDesC16Ri @ 46 NONAME
	_ZN17CNSmlDSHostClient9OpenItemLEiRiS0_S0_RP6HBufC8S3_iRK7TDesC16S0_ @ 47 NONAME
	_ZN17CNSmlDSHostClient9ReadItemLER5TDes8iRK7TDesC16Ri @ 48 NONAME
	_ZN17CNSmlDSHostClientD0Ev @ 49 NONAME
	_ZN17CNSmlDSHostClientD1Ev @ 50 NONAME
	_ZN17CNSmlDSHostClientD2Ev @ 51 NONAME
	_ZN18CNSmlDPInformation10SetVersionERK8TVersion @ 52 NONAME
	_ZN18CNSmlDPInformation12InformationDEv @ 53 NONAME
	_ZN18CNSmlDPInformation12InternalizeLER11RReadStream @ 54 NONAME
	_ZN18CNSmlDPInformation12SetMimeVersLEP11CDesC8Array @ 55 NONAME
	_ZN18CNSmlDPInformation13SetMimeTypesLEP11CDesC8Array @ 56 NONAME
	_ZN18CNSmlDPInformation15SetDisplayNameLERK7TDesC16 @ 57 NONAME
	_ZN18CNSmlDPInformation18SetProtocolVersionE19TSmlProtocolVersion @ 58 NONAME
	_ZN18CNSmlDPInformation4NewLEv @ 59 NONAME
	_ZN18CNSmlDPInformation5NewLCEv @ 60 NONAME
	_ZN18CNSmlDPInformationD0Ev @ 61 NONAME
	_ZN18CNSmlDPInformationD1Ev @ 62 NONAME
	_ZN18CNSmlDPInformationD2Ev @ 63 NONAME
	_ZN23TNSmlDbItemModificationC1ERKS_ @ 64 NONAME
	_ZN23TNSmlDbItemModificationC1EiNS_27TNSmlDbItemModificationTypeE @ 65 NONAME
	_ZN23TNSmlDbItemModificationC2ERKS_ @ 66 NONAME
	_ZN23TNSmlDbItemModificationC2EiNS_27TNSmlDbItemModificationTypeE @ 67 NONAME
	_ZN23TNSmlDbItemModificationaSERKS_ @ 68 NONAME
	_ZN26RNSmlDbItemModificationSet10RemoveItemEi @ 69 NONAME
	_ZN26RNSmlDbItemModificationSet12InternalizeLER11RReadStream @ 70 NONAME
	_ZN26RNSmlDbItemModificationSet5CloseEv @ 71 NONAME
	_ZN26RNSmlDbItemModificationSet5ResetEv @ 72 NONAME
	_ZN26RNSmlDbItemModificationSet8AddItemLERK23TNSmlDbItemModification @ 73 NONAME
	_ZN26RNSmlDbItemModificationSet9AddGroupLERK18MSmlDataItemUidSetN23TNSmlDbItemModification27TNSmlDbItemModificationTypeE @ 74 NONAME
	_ZNK15CNSmlDSHostItem11FieldChangeEv @ 75 NONAME
	_ZNK15CNSmlDSHostItem12ExternalizeLER12RWriteStream @ 76 NONAME
	_ZNK15CNSmlDSHostItem3UidEv @ 77 NONAME
	_ZNK15CNSmlDSHostItem4SizeEv @ 78 NONAME
	_ZNK15CNSmlDSHostItem7MimeVerEv @ 79 NONAME
	_ZNK15CNSmlDSHostItem8MimeTypeEv @ 80 NONAME
	_ZNK15CNSmlDSHostItem9ParentUidEv @ 81 NONAME
	_ZNK17CNSmlDSHostClient11AddedItemsLER26RNSmlDbItemModificationSetiRK7TDesC16Ri @ 82 NONAME
	_ZNK17CNSmlDSHostClient11MovedItemsLER26RNSmlDbItemModificationSetiRK7TDesC16Ri @ 83 NONAME
	_ZNK17CNSmlDSHostClient13DeletedItemsLER26RNSmlDbItemModificationSetiRK7TDesC16Ri @ 84 NONAME
	_ZNK17CNSmlDSHostClient14MaxObjectSizeLEiRK7TDesC16Ri @ 85 NONAME
	_ZNK17CNSmlDSHostClient14ModifiedItemsLER26RNSmlDbItemModificationSetiRK7TDesC16Ri @ 86 NONAME
	_ZNK17CNSmlDSHostClient15HasSyncHistoryLEiRK7TDesC16Ri @ 87 NONAME
	_ZNK17CNSmlDSHostClient16SoftDeleteItemsLER26RNSmlDbItemModificationSetiRK7TDesC16Ri @ 88 NONAME
	_ZNK17CNSmlDSHostClient18SupportsOperationLE4TUidiRi @ 89 NONAME
	_ZNK17CNSmlDSHostClient19CheckServerFiltersLEiR13RPointerArrayI13CSyncMLFilterER23TSyncMLFilterChangeInfoRi @ 90 NONAME
	_ZNK17CNSmlDSHostClient23SupportedServerFiltersLEiR22TSyncMLFilterMatchTypeR23TSyncMLFilterChangeInfoRi @ 91 NONAME
	_ZNK17CNSmlDSHostClient24DataProviderInformationLEiRi @ 92 NONAME
	_ZNK17CNSmlDSHostClient28CheckSupportedServerFiltersLEiRK11CNSmlDbCapsRK9CArrayFixI18TNSmlFilterCapDataER13RPointerArrayI13CSyncMLFilterER23TSyncMLFilterChangeInfoRi @ 93 NONAME
	_ZNK17CNSmlDSHostClient9AllItemsLER26RNSmlDbItemModificationSetiRK7TDesC16Ri @ 94 NONAME
	_ZNK18CNSmlDPInformation11DisplayNameEv @ 95 NONAME
	_ZNK18CNSmlDPInformation12ExternalizeLER12RWriteStream @ 96 NONAME
	_ZNK18CNSmlDPInformation15ProtocolVersionEv @ 97 NONAME
	_ZNK18CNSmlDPInformation5SetIdEi @ 98 NONAME
	_ZNK18CNSmlDPInformation7VersionEv @ 99 NONAME
	_ZNK18CNSmlDPInformation8MimeVersEv @ 100 NONAME
	_ZNK18CNSmlDPInformation9MimeTypesEv @ 101 NONAME
	_ZNK23TNSmlDbItemModification16ModificationTypeEv @ 102 NONAME
	_ZNK23TNSmlDbItemModification6ItemIdEv @ 103 NONAME
	_ZNK26RNSmlDbItemModificationSet10StreamSizeEv @ 104 NONAME
	_ZNK26RNSmlDbItemModificationSet12ExternalizeLER12RWriteStream @ 105 NONAME
	_ZNK26RNSmlDbItemModificationSet6ItemAtEi @ 106 NONAME
	_ZNK26RNSmlDbItemModificationSet9ItemCountEv @ 107 NONAME
	_ZNK26RNSmlDbItemModificationSet9ItemIndexEi @ 108 NONAME
	_ZTI15CNSmlDSHostItem @ 109 NONAME ; #<TI>#
	_ZTI17CNSmlDSHostClient @ 110 NONAME ; #<TI>#
	_ZTI18CNSmlDPInformation @ 111 NONAME ; #<TI>#
	_ZTV15CNSmlDSHostItem @ 112 NONAME ; #<VT>#
	_ZTV17CNSmlDSHostClient @ 113 NONAME ; #<VT>#
	_ZTV18CNSmlDPInformation @ 114 NONAME ; #<VT>#

