EXPORTS
	_ZN10TNSmlError12SetErrorCodeEi @ 1 NONAME
	_ZN10TNSmlError16SyncLogErrorCodeEv @ 2 NONAME
	_ZN10TNSmlError18SyncLogMessageCodeEv @ 3 NONAME
	_ZN10TNSmlError19ErrorCodeConversionEv @ 4 NONAME
	_ZN10TNSmlErrorC1Ev @ 5 NONAME
	_ZN10TNSmlErrorC2Ev @ 6 NONAME
	_ZN10TNSmlErrorD0Ev @ 7 NONAME
	_ZN10TNSmlErrorD1Ev @ 8 NONAME
	_ZN10TNSmlErrorD2Ev @ 9 NONAME
	_ZN13CNSmlCmdsBase10ConstructLEP14CNSmlAgentBaseRK6TDesC8S4_iRK7HBufC16P8CNSmlURIi @ 10 NONAME
	_ZN13CNSmlCmdsBase10DoSyncHdrLEv @ 11 NONAME
	_ZN13CNSmlCmdsBase14ProcessMapCmdLEP9sml_map_s @ 12 NONAME
	_ZN13CNSmlCmdsBase15DoGenericAlertLERK6TDesC8RK6RArrayI16CNSmlDMAlertItemE @ 13 NONAME
	_ZN13CNSmlCmdsBase15DoGenericAlertLERK6TDesC8S2_S2_iS2_ @ 14 NONAME
	_ZN13CNSmlCmdsBase15ProcessCopyCmdLEP13sml_generic_s @ 15 NONAME
	_ZN13CNSmlCmdsBase15ProcessExecCmdLEP10sml_exec_s @ 16 NONAME
	_ZN13CNSmlCmdsBase15ProcessSyncHdrLEP14sml_sync_hdr_s @ 17 NONAME
	_ZN13CNSmlCmdsBase17ProcessSearchCmdLEP12sml_search_s @ 18 NONAME
	_ZN13CNSmlCmdsBase17ProcessStatusCmdLEP12sml_status_s @ 19 NONAME
	_ZN13CNSmlCmdsBase18MarkGenAlertsSentLERK6TDesC8 @ 20 NONAME
	_ZN13CNSmlCmdsBase18MarkGenAlertsSentLEv @ 21 NONAME
	_ZN13CNSmlCmdsBase19DoGenericUserAlertLEi @ 22 NONAME
	_ZN13CNSmlCmdsBase20CloseIDMappingTableLEv @ 23 NONAME
	_ZN13CNSmlCmdsBase20FetchIDMappingTableLEi @ 24 NONAME
	_ZN13CNSmlCmdsBase20ProcessReceivedDataLEv @ 25 NONAME
	_ZN13CNSmlCmdsBase20StatusDataToCommandLERK6TDesC8PK12sml_pcdata_sjPK10sml_item_sN10TNSmlError21TNSmlSyncMLStatusCodeEPS1_ @ 26 NONAME
	_ZN13CNSmlCmdsBase21BufferAreaForParsingLEv @ 27 NONAME
	_ZN13CNSmlCmdsBase21DeleteIDMappingTableLERK7TDesC16S2_ @ 28 NONAME
	_ZN13CNSmlCmdsBase22ResetGenericUserAlertLEv @ 29 NONAME
	_ZN13CNSmlCmdsBase22ResetLargeObjectBufferEv @ 30 NONAME
	_ZN13CNSmlCmdsBase23SetMaximumWorkspaceSizeEi @ 31 NONAME
	_ZN13CNSmlCmdsBase23StatusDataToGetCommandLEPK13sml_get_put_sPK10sml_item_sN10TNSmlError21TNSmlSyncMLStatusCodeEPK6TDesC8 @ 32 NONAME
	_ZN13CNSmlCmdsBase26CreateAndInitResponseItemLERK6TDesC8 @ 33 NONAME
	_ZN13CNSmlCmdsBase26DisconnectFromOtherServersEv @ 34 NONAME
	_ZN13CNSmlCmdsBase26SubtractConsumedFromPcDataERP10sml_item_si @ 35 NONAME
	_ZN13CNSmlCmdsBase27StatusDataToGenericCommandLERK6TDesC8PK13sml_generic_sPK10sml_item_sN10TNSmlError21TNSmlSyncMLStatusCodeEPS1_ @ 36 NONAME
	_ZN13CNSmlCmdsBase27StatusToUnsupportedCommandLEiRK6TDesC8PK12sml_pcdata_sj @ 37 NONAME
	_ZN13CNSmlCmdsBase8DoCmdIdLERP12sml_pcdata_s @ 38 NONAME
	_ZN13CNSmlCmdsBase9DoStatusLEP12sml_status_s @ 39 NONAME
	_ZN13CNSmlCmdsBase9MoreDataLEPK6HBufC8PK10sml_item_sPK12sml_pcdata_sRP8CBufBase @ 40 NONAME
	_ZN13CNSmlCmdsBaseC2Ev @ 41 NONAME
	_ZN13CNSmlCmdsBaseD0Ev @ 42 NONAME
	_ZN13CNSmlCmdsBaseD1Ev @ 43 NONAME
	_ZN13CNSmlCmdsBaseD2Ev @ 44 NONAME
	_ZN14CNSmlAgentBase10ConstructLEv @ 45 NONAME
	_ZN14CNSmlAgentBase13SendingStateLEv @ 46 NONAME
	_ZN14CNSmlAgentBase14smlAddCmdFuncLEP13sml_generic_s @ 47 NONAME
	_ZN14CNSmlAgentBase14smlMapCmdFuncLEP9sml_map_s @ 48 NONAME
	_ZN14CNSmlAgentBase15BeginningStateLEv @ 49 NONAME
	_ZN14CNSmlAgentBase15DoOutsideCancelEv @ 50 NONAME
	_ZN14CNSmlAgentBase15ReceivingStateLEv @ 51 NONAME
	_ZN14CNSmlAgentBase15StatusReferenceEv @ 52 NONAME
	_ZN14CNSmlAgentBase15smlCopyCmdFuncLEP13sml_generic_s @ 53 NONAME
	_ZN14CNSmlAgentBase15smlExecCmdFuncLEP10sml_exec_s @ 54 NONAME
	_ZN14CNSmlAgentBase15smlMoveCmdFuncLEP13sml_generic_s @ 55 NONAME
	_ZN14CNSmlAgentBase17FreeBaseResourcesEv @ 56 NONAME
	_ZN14CNSmlAgentBase17ResultAlertStateLEv @ 57 NONAME
	_ZN14CNSmlAgentBase17smlDeleteCmdFuncLEP13sml_generic_s @ 58 NONAME
	_ZN14CNSmlAgentBase17smlSearchCmdFuncLEP12sml_search_s @ 59 NONAME
	_ZN14CNSmlAgentBase18LaunchAutoRestartLEi @ 60 NONAME
	_ZN14CNSmlAgentBase18smlReplaceCmdFuncLEP13sml_generic_s @ 61 NONAME
	_ZN14CNSmlAgentBase20SetOffCallbackCalledEv @ 62 NONAME
	_ZN14CNSmlAgentBase21ClientAlertNextStateLEv @ 63 NONAME
	_ZN14CNSmlAgentBase21ServerAlertNextStateLEv @ 64 NONAME
	_ZN14CNSmlAgentBase22DataUpdateStatusStateLEv @ 65 NONAME
	_ZN14CNSmlAgentBase23ServerModAlertCmdStateLEP11sml_alert_s @ 66 NONAME
	_ZN14CNSmlAgentBase24ServerModStatusCmdStateLEP12sml_status_s @ 67 NONAME
	_ZN14CNSmlAgentBase24SetEndOfDataAlertRequestEv @ 68 NONAME
	_ZN14CNSmlAgentBase25ServerModEndMessageStateLEi @ 69 NONAME
	_ZN14CNSmlAgentBase26AuthenticationRequirementLERK23CNSmlResponseControlleri @ 70 NONAME
	_ZN14CNSmlAgentBase26ClientInitialisationStateLEv @ 71 NONAME
	_ZN14CNSmlAgentBase26InitAskingDeviceInfoStateLEv @ 72 NONAME
	_ZN14CNSmlAgentBase27ServerModStartMessageStateLEP14sml_sync_hdr_s @ 73 NONAME
	_ZN14CNSmlAgentBase28CheckStatusCodesAreReceivedLEi @ 74 NONAME
	_ZN14CNSmlAgentBase29InitStartingMessageStateBaseLEv @ 75 NONAME
	_ZN14CNSmlAgentBase29ServerAlertNextAlertCmdStateLEP11sml_alert_s @ 76 NONAME
	_ZN14CNSmlAgentBase30ClientAlertNextMakingMapStateLEv @ 77 NONAME
	_ZN14CNSmlAgentBase30ServerAlertNextStatusCmdStateLEP12sml_status_s @ 78 NONAME
	_ZN14CNSmlAgentBase31DataUpdateStatusMakingMapStateLEv @ 79 NONAME
	_ZN14CNSmlAgentBase31ServerAlertNextEndMessageStateLEi @ 80 NONAME
	_ZN14CNSmlAgentBase33ServerAlertNextStartMessageStateLEP14sml_sync_hdr_s @ 81 NONAME
	_ZN14CNSmlAgentBase35DataUpdateStatusMakingResultsStateLEv @ 82 NONAME
	_ZN14CNSmlAgentBase41DataUpdateStatusStartingMessageStateBaseLEv @ 83 NONAME
	_ZN14CNSmlAgentBase4RunLEv @ 84 NONAME
	_ZN14CNSmlAgentBase7SyncLogEv @ 85 NONAME
	_ZN14CNSmlAgentBase8DoCancelEv @ 86 NONAME
	_ZN14CNSmlAgentBaseC2Ev @ 87 NONAME
	_ZN14CNSmlAgentBaseD0Ev @ 88 NONAME
	_ZN14CNSmlAgentBaseD1Ev @ 89 NONAME
	_ZN14CNSmlAgentBaseD2Ev @ 90 NONAME
	_ZN14CNSmlPhoneInfo10SwVersionLEv @ 91 NONAME
	_ZN14CNSmlPhoneInfo4NewLEv @ 92 NONAME
	_ZN14CNSmlPhoneInfo5NewLCEv @ 93 NONAME
	_ZN20CNSmlStatusContainer10SetCmdRefLEiPK12sml_pcdata_s @ 94 NONAME
	_ZN20CNSmlStatusContainer12AddItemDataLEiPK12sml_pcdata_s @ 95 NONAME
	_ZN20CNSmlStatusContainer13AddSourceRefLEiPK12sml_source_s @ 96 NONAME
	_ZN20CNSmlStatusContainer13AddTargetRefLEiPK12sml_target_s @ 97 NONAME
	_ZN20CNSmlStatusContainer13SetNoResponseEii @ 98 NONAME
	_ZN20CNSmlStatusContainer14SetStatusCodeLEiii @ 99 NONAME
	_ZN20CNSmlStatusContainer17NextStatusElementERP12sml_status_si @ 100 NONAME
	_ZN20CNSmlStatusContainer20SetPerformedInAtomicEi @ 101 NONAME
	_ZN20CNSmlStatusContainer21SetAtomicOrSequenceIdEii @ 102 NONAME
	_ZN20CNSmlStatusContainer23CreateNewStatusElementLEv @ 103 NONAME
	_ZN20CNSmlStatusContainer23SetStatusCodesInAtomicLEiii @ 104 NONAME
	_ZN20CNSmlStatusContainer35SetStatusCodeToAtomicOrSequenceCmdLEiiRK6TDesC8 @ 105 NONAME
	_ZN20CNSmlStatusContainer5BeginEv @ 106 NONAME
	_ZN20CNSmlStatusContainer7SetCmdLEiRK6TDesC8 @ 107 NONAME
	_ZN20NSmlUnicodeConverter14HBufC8InUTF8LCERK7TDesC16RP6HBufC8 @ 108 NONAME
	_ZN20NSmlUnicodeConverter17HBufC16InUnicodeLERK6TDesC8RP7HBufC16 @ 109 NONAME
	_ZN20NSmlUnicodeConverter18HBufC16InUnicodeLCERK6TDesC8RP7HBufC16 @ 110 NONAME
	_ZN21CNSmlResultsContainer11SetStatusIDEii @ 111 NONAME
	_ZN21CNSmlResultsContainer13RemoveWrittenEi @ 112 NONAME
	_ZN21CNSmlResultsContainer17CreateNewResultsLERK6TDesC8S2_PK12sml_target_sPK12sml_source_s @ 113 NONAME
	_ZN21CNSmlResultsContainer18NextResultsElementERP13sml_results_s @ 114 NONAME
	_ZN21CNSmlResultsContainer5BeginEv @ 115 NONAME
	_ZN21CNSmlResultsContainer8AddItemLEiRK8CBufBaseRK6TDesC8S5_ @ 116 NONAME
	_ZN21CNSmlResultsContainer9SetCmdIDLEiPK12sml_pcdata_s @ 117 NONAME
	_ZN23CNSmlResponseController11SetAppIndexEii @ 118 NONAME
	_ZN23CNSmlResponseController11SetMoreDataEi @ 119 NONAME
	_ZN23CNSmlResponseController17SetResponseDetailEiNS_15TResponseDetailE @ 120 NONAME
	_ZN23CNSmlResponseController6ResetLEv @ 121 NONAME
	_ZN23CNSmlResponseController8SetLUIDLEiRK6TDesC8 @ 122 NONAME
	_ZN8CNSmlURI12SetDatabaseLERK6TDesC8i @ 123 NONAME
	_ZN8CNSmlURI12SetDatabaseLERK7TDesC16i @ 124 NONAME
	_ZN8CNSmlURI12SetHostNameLERK6TDesC8i @ 125 NONAME
	_ZN8CNSmlURI12SetHostNameLERK7TDesC16i @ 126 NONAME
	_ZN8CNSmlURI16DatabaseMatchesLERK7TDesC16 @ 127 NONAME
	_ZN8CNSmlURI17HostNameWithPortLEi @ 128 NONAME
	_ZN8CNSmlURI21HostNameInUTF8AllocLCEv @ 129 NONAME
	_ZN8CNSmlURI21SyncMLDatabaseAllocLCEv @ 130 NONAME
	_ZN8CNSmlURI29DataBaseWithoutRelativePrefixEv @ 131 NONAME
	_ZN8CNSmlURI4NewLERK6TDesC8i @ 132 NONAME
	_ZN8CNSmlURI4NewLERK7TDesC16i @ 133 NONAME
	_ZN8CNSmlURI4NewLEv @ 134 NONAME
	_ZN8CNSmlURI5NewLCERK6TDesC8i @ 135 NONAME
	_ZN8CNSmlURI5NewLCERK7TDesC16i @ 136 NONAME
	_ZN8CNSmlURI5NewLCEv @ 137 NONAME
	_ZN8CNSmlURI7SetPortEi @ 138 NONAME
	_ZN8CNSmlURI8DatabaseEv @ 139 NONAME
	_ZN8CNSmlURI8HostNameEv @ 140 NONAME
	_ZN8CNSmlURI8IsEqualLERKS_i @ 141 NONAME
	_ZN8CNSmlURIaSERKS_ @ 142 NONAME
	_ZN9CNSmlAuth12SetSyncAgentEP14CNSmlAgentBase @ 143 NONAME
	_ZN9CNSmlAuth14SetCredentialLERK6TDesC8 @ 144 NONAME
	_ZN9CNSmlAuth16SetAuthRequiredLEv @ 145 NONAME
	_ZN9CNSmlAuth4NewLEv @ 146 NONAME
	_ZNK13CNSmlCmdsBase10BusyStatusEv @ 147 NONAME
	_ZNK13CNSmlCmdsBase10DoAnchorsLER19sml_metinf_metinf_sPK6TDesC8S4_ @ 148 NONAME
	_ZNK13CNSmlCmdsBase10DoMetInfLCERP19sml_metinf_metinf_s @ 149 NONAME
	_ZNK13CNSmlCmdsBase10MetaTypeLCEPK12sml_pcdata_s @ 150 NONAME
	_ZNK13CNSmlCmdsBase10PcdataNewLERP12sml_pcdata_sRK6TDesC8 @ 151 NONAME
	_ZNK13CNSmlCmdsBase10ServerAuthEv @ 152 NONAME
	_ZNK13CNSmlCmdsBase13DoMaxObjSizeLER19sml_metinf_metinf_si @ 153 NONAME
	_ZNK13CNSmlCmdsBase15StatusContainerEv @ 154 NONAME
	_ZNK13CNSmlCmdsBase16MetaTypeInUtf8LCEPK12sml_pcdata_s @ 155 NONAME
	_ZNK13CNSmlCmdsBase16ResultsContainerEv @ 156 NONAME
	_ZNK13CNSmlCmdsBase16ServerMaxObjSizeEPK12sml_pcdata_s @ 157 NONAME
	_ZNK13CNSmlCmdsBase16ServerObjectSizeEPK12sml_pcdata_s @ 158 NONAME
	_ZNK13CNSmlCmdsBase17PCDATAToUnicodeLCERK12sml_pcdata_sRP7HBufC16 @ 159 NONAME
	_ZNK13CNSmlCmdsBase17SourceIsUnderItemEPK15sml_item_list_s @ 160 NONAME
	_ZNK13CNSmlCmdsBase17TargetIsUnderItemEPK15sml_item_list_s @ 161 NONAME
	_ZNK13CNSmlCmdsBase18MetaFormatInUtf8LCEPK12sml_pcdata_s @ 162 NONAME
	_ZNK13CNSmlCmdsBase18ResponseControllerEv @ 163 NONAME
	_ZNK13CNSmlCmdsBase19EndOfServerMessageLEv @ 164 NONAME
	_ZNK13CNSmlCmdsBase21TrimRightSpaceAndNullER5TDes8 @ 165 NONAME
	_ZNK13CNSmlCmdsBase21WriteMappingInfoToDbLEv @ 166 NONAME
	_ZNK13CNSmlCmdsBase23WaitingLargeObjectChunkEv @ 167 NONAME
	_ZNK13CNSmlCmdsBase7DoMetaLERP12sml_pcdata_sPK19sml_metinf_metinf_s @ 168 NONAME
	_ZNK13CNSmlCmdsBase7RespURIEv @ 169 NONAME
	_ZNK13CNSmlCmdsBase9AlertCodeEP11sml_alert_s @ 170 NONAME
	_ZNK13CNSmlCmdsBase9DoSourceLERP12sml_source_sRK6TDesC8 @ 171 NONAME
	_ZNK13CNSmlCmdsBase9DoSourceLERP12sml_source_sRK7TDesC16 @ 172 NONAME
	_ZNK13CNSmlCmdsBase9DoSourceLERP12sml_source_sRK7TDesC16S5_ @ 173 NONAME
	_ZNK13CNSmlCmdsBase9DoTargetLERP12sml_target_sRK6TDesC8 @ 174 NONAME
	_ZNK13CNSmlCmdsBase9DoTargetLERP12sml_target_sRK7TDesC16 @ 175 NONAME
	_ZNK13CNSmlCmdsBase9DoTargetLERP12sml_target_sRK7TDesC16S5_ @ 176 NONAME
	_ZNK13CNSmlCmdsBase9IsFlagSetERKjS1_ @ 177 NONAME
	_ZNK14CNSmlAgentBase12SaveIfNonceLERK23CNSmlResponseControlleri @ 178 NONAME
	_ZNK14CNSmlAgentBase14CallbackCalledEv @ 179 NONAME
	_ZNK14CNSmlAgentBase14ServerPasswordEv @ 180 NONAME
	_ZNK14CNSmlAgentBase14ServerUserNameEv @ 181 NONAME
	_ZNK14CNSmlAgentBase15SetServerNonceLERK7TDesC16 @ 182 NONAME
	_ZNK14CNSmlAgentBase17ServerNonceAllocLEv @ 183 NONAME
	_ZNK14CNSmlAgentBase9ProfileIdEv @ 184 NONAME
	_ZNK14CNSmlPhoneInfo10PhoneDataLENS_12TPhoneIdTypeER6TDes16 @ 185 NONAME
	_ZNK20CNSmlStatusContainer11LastEntryIDEv @ 186 NONAME
	_ZNK21CNSmlResultsContainer10AnyResultsEv @ 187 NONAME
	_ZNK21CNSmlResultsContainer14CurrentEntryIDEv @ 188 NONAME
	_ZNK21CNSmlResultsContainer8StatusIDEi @ 189 NONAME
	_ZNK23CNSmlResponseController10StatusCodeEi @ 190 NONAME
	_ZNK23CNSmlResponseController14ResponseDetailEi @ 191 NONAME
	_ZNK23CNSmlResponseController3CmdEi @ 192 NONAME
	_ZNK23CNSmlResponseController4LUIDEi @ 193 NONAME
	_ZNK23CNSmlResponseController7EntryIDEii @ 194 NONAME
	_ZNK23CNSmlResponseController8AppIndexEi @ 195 NONAME
	_ZNK23CNSmlResponseController8ChalTypeEi @ 196 NONAME
	_ZNK23CNSmlResponseController8MoreDataEi @ 197 NONAME
	_ZNK9CNSmlAuth10ChallengedEv @ 198 NONAME
	_ZTI10TNSmlError @ 199 NONAME
	_ZTI13CNSmlCmdsBase @ 200 NONAME
	_ZTI14CNSmlAgentBase @ 201 NONAME
	_ZTI14CNSmlPhoneInfo @ 202 NONAME
	_ZTI20CNSmlStatusContainer @ 203 NONAME
	_ZTI21CNSmlResultsContainer @ 204 NONAME
	_ZTI23CNSmlResponseController @ 205 NONAME
	_ZTI8CNSmlURI @ 206 NONAME
	_ZTI9CNSmlAuth @ 207 NONAME
	_ZTV10TNSmlError @ 208 NONAME
	_ZTV13CNSmlCmdsBase @ 209 NONAME
	_ZTV14CNSmlAgentBase @ 210 NONAME
	_ZTV14CNSmlPhoneInfo @ 211 NONAME
	_ZTV20CNSmlStatusContainer @ 212 NONAME
	_ZTV21CNSmlResultsContainer @ 213 NONAME
	_ZTV23CNSmlResponseController @ 214 NONAME
	_ZTV8CNSmlURI @ 215 NONAME
	_ZTV9CNSmlAuth @ 216 NONAME
	_ZThn28_N14CNSmlAgentBase14smlAddCmdFuncLEP13sml_generic_s @ 217 NONAME
	_ZThn28_N14CNSmlAgentBase14smlMapCmdFuncLEP9sml_map_s @ 218 NONAME
	_ZThn28_N14CNSmlAgentBase15smlCopyCmdFuncLEP13sml_generic_s @ 219 NONAME
	_ZThn28_N14CNSmlAgentBase15smlExecCmdFuncLEP10sml_exec_s @ 220 NONAME
	_ZThn28_N14CNSmlAgentBase15smlMoveCmdFuncLEP13sml_generic_s @ 221 NONAME
	_ZThn28_N14CNSmlAgentBase17smlDeleteCmdFuncLEP13sml_generic_s @ 222 NONAME
	_ZThn28_N14CNSmlAgentBase17smlSearchCmdFuncLEP12sml_search_s @ 223 NONAME
	_ZThn28_N14CNSmlAgentBase18smlReplaceCmdFuncLEP13sml_generic_s @ 224 NONAME

