EXPORTS
	_ZN11CObexClient10DisconnectER14TRequestStatus @ 1 NONAME
	_ZN11CObexClient13UserPasswordLERK7TDesC16 @ 2 NONAME
	_ZN11CObexClient26GetPutFinalResponseHeadersEv @ 3 NONAME
	_ZN11CObexClient3GetER15CObexBaseObjectR14TRequestStatus @ 4 NONAME
	_ZN11CObexClient3PutER15CObexBaseObjectR14TRequestStatus @ 5 NONAME
	_ZN11CObexClient4NewLER17TObexProtocolInfo @ 6 NONAME
	_ZN11CObexClient4NewLER17TObexProtocolInfoR19TObexProtocolPolicy @ 7 NONAME
	_ZN11CObexClient5AbortEv @ 8 NONAME
	_ZN11CObexClient7ConnectER14TRequestStatus @ 9 NONAME
	_ZN11CObexClient7ConnectER15CObexBaseObjectR14TRequestStatus @ 10 NONAME
	_ZN11CObexClient7SetPathERN5CObex12TSetPathInfoER14TRequestStatus @ 11 NONAME
	_ZN11CObexClient8ConnectLER15CObexBaseObjectRK7TDesC16R14TRequestStatus @ 12 NONAME
	_ZN11CObexClient8ConnectLERK7TDesC16R14TRequestStatus @ 13 NONAME
	_ZN11CObexClientD0Ev @ 14 NONAME
	_ZN11CObexClientD1Ev @ 15 NONAME
	_ZN11CObexClientD2Ev @ 16 NONAME
	_ZN11CObexHeader11SetByteSeqLEhRK6TDesC8 @ 17 NONAME
	_ZN11CObexHeader11SetFourByteEhm @ 18 NONAME
	_ZN11CObexHeader11SetUnicodeLEhRK7TDesC16 @ 19 NONAME
	_ZN11CObexHeader13ResetContentsEv @ 20 NONAME
	_ZN11CObexHeader13SetAttributesEt @ 21 NONAME
	_ZN11CObexHeader3SetEPS_ @ 22 NONAME
	_ZN11CObexHeader4NewLEv @ 23 NONAME
	_ZN11CObexHeader5ResetEv @ 24 NONAME
	_ZN11CObexHeader7SetByteEhh @ 25 NONAME
	_ZN11CObexServer13SetChallengeLERK7TDesC16 @ 26 NONAME
	_ZN11CObexServer13UserPasswordLERK7TDesC16 @ 27 NONAME
	_ZN11CObexServer14ResetChallengeEv @ 28 NONAME
	_ZN11CObexServer17SetTargetCheckingENS_15TTargetCheckingE @ 29 NONAME
	_ZN11CObexServer26SetPutFinalResponseHeadersEP14CObexHeaderSet @ 30 NONAME
	_ZN11CObexServer4NewLER17TObexProtocolInfo @ 31 NONAME
	_ZN11CObexServer4NewLER17TObexProtocolInfoR19TObexProtocolPolicy @ 32 NONAME
	_ZN11CObexServer4StopEv @ 33 NONAME
	_ZN11CObexServer5StartEP17MObexServerNotify @ 34 NONAME
	_ZN11CObexServer9IsStartedEv @ 35 NONAME
	_ZN14CObexBufObject11SetDataBufLEP8CBufBase @ 36 NONAME
	_ZN14CObexBufObject11SetDataBufLER21TObexBufferingDetails @ 37 NONAME
	_ZN14CObexBufObject11SetDataBufLERK7TPtrC16 @ 38 NONAME
	_ZN14CObexBufObject11SetDataBufLERK7TPtrC16P8CBufBase @ 39 NONAME
	_ZN14CObexBufObject11SetDataBufLERK7TPtrC16R8CBufBaseNS_14TFileBufferingE @ 40 NONAME
	_ZN14CObexBufObject11WriteToFileERK7TPtrC16 @ 41 NONAME
	_ZN14CObexBufObject4NewLEP8CBufBase @ 42 NONAME
	_ZN14CObexBufObject7DataBufEv @ 43 NONAME
	_ZN14CObexBufObjectD0Ev @ 44 NONAME
	_ZN14CObexBufObjectD1Ev @ 45 NONAME
	_ZN14CObexBufObjectD2Ev @ 46 NONAME
	_ZN14CObexHeaderSet12DeleteMaskedEv @ 47 NONAME
	_ZN14CObexHeaderSet19DeleteCurrentHeaderEv @ 48 NONAME
	_ZN14CObexHeaderSet4NewLEv @ 49 NONAME
	_ZN14CObexHeaderSet5CopyLER16MObexHeaderCheck @ 50 NONAME
	_ZN14CObexHeaderSet5CopyLEv @ 51 NONAME
	_ZN14CObexHeaderSet7SetMaskEP16MObexHeaderCheck @ 52 NONAME
	_ZN14CObexHeaderSet9AddHeaderEP11CObexHeader @ 53 NONAME
	_ZN15CObexBaseObject10AddHeaderLER11CObexHeader @ 54 NONAME
	_ZN15CObexBaseObject10HeaderMaskEv @ 55 NONAME
	_ZN15CObexBaseObject10SetLengthLEm @ 56 NONAME
	_ZN15CObexBaseObject10SetTargetLERK6TDesC8 @ 57 NONAME
	_ZN15CObexBaseObject11DescriptionEv @ 58 NONAME
	_ZN15CObexBaseObject12SetAppParamLERK6TDesC8 @ 59 NONAME
	_ZN15CObexBaseObject12ValidHeadersEv @ 60 NONAME
	_ZN15CObexBaseObject13BytesReceivedEv @ 61 NONAME
	_ZN15CObexBaseObject13SetHeaderMaskEt @ 62 NONAME
	_ZN15CObexBaseObject15SetDescriptionLERK7TDesC16 @ 63 NONAME
	_ZN15CObexBaseObject4NameEv @ 64 NONAME
	_ZN15CObexBaseObject4TimeEv @ 65 NONAME
	_ZN15CObexBaseObject4TypeEv @ 66 NONAME
	_ZN15CObexBaseObject5ResetEv @ 67 NONAME
	_ZN15CObexBaseObject6LengthEv @ 68 NONAME
	_ZN15CObexBaseObject6TargetEv @ 69 NONAME
	_ZN15CObexBaseObject8AddHttpLERK6TDesC8 @ 70 NONAME
	_ZN15CObexBaseObject8SetNameLERK7TDesC16 @ 71 NONAME
	_ZN15CObexBaseObject8SetTimeLE5TTime @ 72 NONAME
	_ZN15CObexBaseObject8SetTypeLERK6TDesC8 @ 73 NONAME
	_ZN15CObexBaseObject9BytesSentEv @ 74 NONAME
	_ZN15CObexBaseObject9HeaderSetEv @ 75 NONAME
	_ZN15CObexFileObject13InitFromFileLERK7TDesC16 @ 76 NONAME
	_ZN15CObexFileObject4NewLERK7TDesC16 @ 77 NONAME
	_ZN15CObexFileObject4NewLEv @ 78 NONAME
	_ZN15CObexFileObjectD0Ev @ 79 NONAME
	_ZN15CObexFileObjectD1Ev @ 80 NONAME
	_ZN15CObexFileObjectD2Ev @ 81 NONAME
	_ZN15CObexNullObject4NewLEv @ 82 NONAME
	_ZN16MObexHeaderCheck24MOHC_ExtensionInterfaceLE4TUidRPv @ 83 NONAME
	_ZN16MObexHeaderCheck5ResetEv @ 84 NONAME
	_ZN16TObexConnectInfoC1Ev @ 85 NONAME
	_ZN16TObexConnectInfoC2Ev @ 86 NONAME
	_ZN16TObexMatchHeader10InterestedEh @ 87 NONAME
	_ZN16TObexMatchHeader9SetHeaderEh @ 88 NONAME
	_ZN17MObexServerNotify24MOSN_ExtensionInterfaceLE4TUidRPv @ 89 NONAME
	_ZN19TObexProtocolPolicy13SetReceiveMtuEt @ 90 NONAME
	_ZN19TObexProtocolPolicy14SetTransmitMtuEt @ 91 NONAME
	_ZN19TObexProtocolPolicyC1Ev @ 92 NONAME
	_ZN19TObexProtocolPolicyC2Ev @ 93 NONAME
	_ZN19TObexPureFileBufferC1ERK7TPtrC16 @ 94 NONAME
	_ZN19TObexPureFileBufferC2ERK7TPtrC16 @ 95 NONAME
	_ZN20TObexMatchHeaderType10InterestedEh @ 96 NONAME
	_ZN20TObexMatchHeaderType7SetTypeEN11CObexHeader11THeaderTypeE @ 97 NONAME
	_ZN21TObexBufferingDetailsC1ER8CBufBase @ 98 NONAME
	_ZN21TObexBufferingDetailsC2ER8CBufBase @ 99 NONAME
	_ZN22TObexRFileBackedBufferC1ER8CBufBase5RFileN14CObexBufObject14TFileBufferingE @ 100 NONAME
	_ZN22TObexRFileBackedBufferC2ER8CBufBase5RFileN14CObexBufObject14TFileBufferingE @ 101 NONAME
	_ZN25MObexAuthChallengeHandler25MOACH_ExtensionInterfaceLE4TUidRPv @ 102 NONAME
	_ZN25TObexFilenameBackedBufferC1ER8CBufBaseRK7TPtrC16N14CObexBufObject14TFileBufferingE @ 103 NONAME
	_ZN25TObexFilenameBackedBufferC2ER8CBufBaseRK7TPtrC16N14CObexBufObject14TFileBufferingE @ 104 NONAME
	_ZN5CObex10RemoteAddrER9TSockAddr @ 105 NONAME
	_ZN5CObex11SetCallBackER25MObexAuthChallengeHandler @ 106 NONAME
	_ZN5CObex11SetLocalWhoERK6TDesC8 @ 107 NONAME
	_ZN5CObex12TSetPathInfoC1Ev @ 108 NONAME
	_ZN5CObex12TSetPathInfoC2Ev @ 109 NONAME
	_ZNK11CObexHeader10AsFourByteEv @ 110 NONAME
	_ZNK11CObexHeader10AttributesEv @ 111 NONAME
	_ZNK11CObexHeader11EncodedSizeEv @ 112 NONAME
	_ZNK11CObexHeader2HIEv @ 113 NONAME
	_ZNK11CObexHeader4TypeEv @ 114 NONAME
	_ZNK11CObexHeader5CopyLEv @ 115 NONAME
	_ZNK11CObexHeader6AsByteEv @ 116 NONAME
	_ZNK11CObexHeader9AsByteSeqEv @ 117 NONAME
	_ZNK11CObexHeader9AsUnicodeEv @ 118 NONAME
	_ZNK11CObexServer16CurrentOperationEv @ 119 NONAME
	_ZNK14CObexHeaderSet4FindEhR11CObexHeader @ 120 NONAME
	_ZNK14CObexHeaderSet4NextEi @ 121 NONAME
	_ZNK14CObexHeaderSet4NextEv @ 122 NONAME
	_ZNK14CObexHeaderSet4ThisEP11CObexHeader @ 123 NONAME
	_ZNK14CObexHeaderSet5CountEv @ 124 NONAME
	_ZNK14CObexHeaderSet5FirstEv @ 125 NONAME
	_ZNK15CObexBaseObject4HttpEv @ 126 NONAME
	_ZNK15CObexBaseObject8AppParamEv @ 127 NONAME
	_ZNK15CObexBaseObject9HeaderSetEv @ 128 NONAME
	_ZNK16TObexConnectInfo12VersionMajorEv @ 129 NONAME
	_ZNK16TObexConnectInfo12VersionMinorEv @ 130 NONAME
	_ZNK19TObexProtocolPolicy10ReceiveMtuEv @ 131 NONAME
	_ZNK19TObexProtocolPolicy11TransmitMtuEv @ 132 NONAME
	_ZNK19TObexProtocolPolicy7VersionEv @ 133 NONAME
	_ZNK5CObex10RemoteInfoEv @ 134 NONAME
	_ZNK5CObex11IsConnectedEv @ 135 NONAME
	_ZNK5CObex12ConnectStateEv @ 136 NONAME
	_ZNK5CObex12IsStrictPeerEv @ 137 NONAME
	_ZNK5CObex12TSetPathInfo6ParentEv @ 138 NONAME
	_ZNK5CObex9LocalInfoEv @ 139 NONAME
	_ZTI16MObexHeaderCheck @ 140 NONAME ; #<TI>#
	_ZTI17MObexServerNotify @ 141 NONAME ; #<TI>#
	_ZTI25MObexAuthChallengeHandler @ 142 NONAME ; #<TI>#
	_ZTV16MObexHeaderCheck @ 143 NONAME ; #<VT>#
	_ZTV17MObexServerNotify @ 144 NONAME ; #<VT>#
	_ZTV25MObexAuthChallengeHandler @ 145 NONAME ; #<VT>#
	_ZN11CObexClient4NewLER18TObexTransportInfo @ 146 NONAME
	_ZN11CObexServer4NewLER18TObexTransportInfo @ 147 NONAME
	_ZN11CObexClient22SetFinalPacketObserverEP24MObexFinalPacketObserver @ 148 NONAME
	_ZN11CObexServer5StartEP22MObexServerNotifyAsync @ 149 NONAME
	_ZN22MObexServerNotifyAsync25MOSNA_ExtensionInterfaceLE4TUidRPv @ 150 NONAME
	_ZTI22MObexServerNotifyAsync @ 151 NONAME ; #<TI>#
	_ZTV22MObexServerNotifyAsync @ 152 NONAME ; #<VT>#
	_ZN11CObexServer25RequestIndicationCallbackEP15CObexBaseObject @ 153 NONAME
	_ZN11CObexServer33RequestCompleteIndicationCallbackE13TObexResponse @ 154 NONAME
	_ZN11CObexServer33RequestCompleteIndicationCallbackEi @ 155 NONAME
	_ZN11CObexServer34RequestIndicationCallbackWithErrorE13TObexResponse @ 156 NONAME
	_ZN11CObexServer34RequestIndicationCallbackWithErrorEi @ 157 NONAME
	_ZNK11CObexClient22LastServerResponseCodeEv @ 158 NONAME
	_ZNK5CObex16IsAuthenticatingEv @ 159 NONAME
	_ZN11CObexClient17SetCommandTimeOutE27TTimeIntervalMicroSeconds32 @ 160 NONAME
	_ZN11CObexClient18ExtensionInterfaceE4TUid @ 161 NONAME
	_ZN11CObexServer13PacketHeadersERP14CObexHeaderSet @ 162 NONAME
	_ZN11CObexServer13PacketHeadersERP14CObexHeaderSetR16MObexHeaderCheck @ 163 NONAME
	_ZN11CObexServer19ExtensionInterfaceLE4TUid @ 164 NONAME
	_ZN5CObex36SuppressAuthenticationHeaderElementsENS_27TObexSuppressedAuthElementsE @ 165 NONAME
	_ZNK11CObexServer13TransportInfoEv @ 166 NONAME
	_ZN11CObexServer23SetReadActivityObserverEP25MObexReadActivityObserver @ 167 NONAME

