EXPORTS
	_ZN16RTerminalControl5CloseEv @ 1 NONAME
	_ZN16RTerminalControl7ConnectEv @ 2 NONAME
	_ZN23RTerminalControlSession10DeleteFileERK6TDesC8 @ 3 NONAME
	_ZN23RTerminalControlSession10DeviceWipeEv @ 4 NONAME
	_ZN23RTerminalControlSession11StopProcessEiRK6TDesC8 @ 5 NONAME
	_ZN23RTerminalControlSession12RebootDeviceEi @ 6 NONAME
	_ZN23RTerminalControlSession15GetProcessDataLEP8CBufFlatRK6TDesC8S4_ @ 7 NONAME
	_ZN23RTerminalControlSession15GetProcessListLEP8CBufFlat @ 8 NONAME
	_ZN23RTerminalControlSession15StartNewProcessEiRK6TDesC8 @ 9 NONAME
	_ZN23RTerminalControlSession16FileScanResultsLEP8CBufFlat @ 10 NONAME
	_ZN23RTerminalControlSession17GetAutolockPeriodERl @ 11 NONAME
	_ZN23RTerminalControlSession17GetDeviceLockCodeER6TDesC8 @ 12 NONAME
	_ZN23RTerminalControlSession17SetAutolockPeriodEl @ 13 NONAME
	_ZN23RTerminalControlSession17SetDeviceLockCodeERK6TDesC8 @ 14 NONAME
	_ZN23RTerminalControlSession18GetDeviceLockLevelERl @ 15 NONAME
	_ZN23RTerminalControlSession18GetProcessListSizeER5TDes8 @ 16 NONAME
	_ZN23RTerminalControlSession18GetProcessListSizeERi @ 17 NONAME
	_ZN23RTerminalControlSession18SetDeviceLockLevelEl @ 18 NONAME
	_ZN23RTerminalControlSession19FileScanResultsSizeER5TDes8 @ 19 NONAME
	_ZN23RTerminalControlSession19FileScanResultsSizeERi @ 20 NONAME
	_ZN23RTerminalControlSession20GetMaxAutolockPeriodERl @ 21 NONAME
	_ZN23RTerminalControlSession20GetPasscodeMaxLengthERl @ 22 NONAME
	_ZN23RTerminalControlSession20GetPasscodeMinLengthERl @ 23 NONAME
	_ZN23RTerminalControlSession20SetMaxAutolockPeriodEl @ 24 NONAME
	_ZN23RTerminalControlSession20SetPasscodeMaxLengthEl @ 25 NONAME
	_ZN23RTerminalControlSession20SetPasscodeMinLengthEl @ 26 NONAME
	_ZN23RTerminalControlSession21GetPasscodeExpirationERl @ 27 NONAME
	_ZN23RTerminalControlSession21SetPasscodeExpirationEl @ 28 NONAME
	_ZN23RTerminalControlSession22GetPasscodeMaxAttemptsERl @ 29 NONAME
	_ZN23RTerminalControlSession22SetPasscodeMaxAttemptsEl @ 30 NONAME
	_ZN23RTerminalControlSession24GetPasscodeHistoryBufferERl @ 31 NONAME
	_ZN23RTerminalControlSession24SetPasscodeHistoryBufferEl @ 32 NONAME
	_ZN23RTerminalControlSession27AllowSpecificPasscodeStringERK6TDesC8 @ 33 NONAME
	_ZN23RTerminalControlSession28ClearSpecificPasscodeStringsEv @ 34 NONAME
	_ZN23RTerminalControlSession28GetPasscodeMinChangeIntervalERl @ 35 NONAME
	_ZN23RTerminalControlSession28SetPasscodeMinChangeIntervalEl @ 36 NONAME
	_ZN23RTerminalControlSession29GetPasscodeConsecutiveNumbersERi @ 37 NONAME
	_ZN23RTerminalControlSession29GetPasscodeMinChangeToleranceERl @ 38 NONAME
	_ZN23RTerminalControlSession29SetPasscodeConsecutiveNumbersEi @ 39 NONAME
	_ZN23RTerminalControlSession29SetPasscodeMinChangeToleranceEl @ 40 NONAME
	_ZN23RTerminalControlSession30DisallowSpecificPasscodeStringERK6TDesC8 @ 41 NONAME
	_ZN23RTerminalControlSession31GetPasscodeCheckSpecificStringsERi @ 42 NONAME
	_ZN23RTerminalControlSession31GetPasscodeRequireUpperAndLowerERi @ 43 NONAME
	_ZN23RTerminalControlSession31SetPasscodeCheckSpecificStringsEi @ 44 NONAME
	_ZN23RTerminalControlSession31SetPasscodeRequireUpperAndLowerEi @ 45 NONAME
	_ZN23RTerminalControlSession32GetPasscodeMaxRepeatedCharactersERl @ 46 NONAME
	_ZN23RTerminalControlSession32SetPasscodeMaxRepeatedCharactersEl @ 47 NONAME
	_ZN23RTerminalControlSession33GetPasscodeRequireCharsAndNumbersERi @ 48 NONAME
	_ZN23RTerminalControlSession33SetPasscodeRequireCharsAndNumbersEi @ 49 NONAME
	_ZN23RTerminalControlSession4OpenER16RTerminalControlR9TCertInfo @ 50 NONAME
	_ZN23RTerminalControlSession5CloseEv @ 51 NONAME
	_ZN23RTerminalControlSession8FileScanERK6TDesC8i @ 52 NONAME
	_ZN31RTerminalControl3rdPartySession22GetDeviceLockParameterEiR5TDes8 @ 53 NONAME
	_ZN31RTerminalControl3rdPartySession22SetDeviceLockParameterEiRK6TDesC8 @ 54 NONAME
	_ZN31RTerminalControl3rdPartySession26GetDeviceLockParameterSizeEi @ 55 NONAME
	_ZN31RTerminalControl3rdPartySession4OpenER16RTerminalControl @ 56 NONAME
	_ZN31RTerminalControl3rdPartySession5CloseEv @ 57 NONAME
	_ZN23RTerminalControlSession31GetPasscodeMinSpecialCharactersERl @ 58 NONAME
	_ZN23RTerminalControlSession31SetPasscodeMinSpecialCharactersEl @ 59 NONAME
	_ZN23RTerminalControlSession25GetPasscodeDisallowSimpleERi @ 60 NONAME
	_ZN23RTerminalControlSession25SetPasscodeDisallowSimpleEi @ 61 NONAME

