EXPORTS
	?AuthTypeL@CNSmlDSAgentLog@@QAEHABVTDesC16@@@Z @ 1 NONAME ; int CNSmlDSAgentLog::AuthTypeL(class TDesC16 const &)
	?GetServerDeviceInfoL@CNSmlDSAgentLog@@QAEXAAV?$RPointerArray@VCNSmlDbCaps@@@@@Z @ 2 NONAME ; void CNSmlDSAgentLog::GetServerDeviceInfoL(class RPointerArray<class CNSmlDbCaps> &)
	?GetServerFilterInfoL@CNSmlDSAgentLog@@QAEXPAV?$CArrayFix@UTNSmlFilterCapData@@@@@Z @ 3 NONAME ; void CNSmlDSAgentLog::GetServerFilterInfoL(class CArrayFix<struct TNSmlFilterCapData> *)
	?IntValueL@CNSmlDSAgentLog@@QAEHW4TNSmlAgentLogData@@@Z @ 4 NONAME ; int CNSmlDSAgentLog::IntValueL(enum TNSmlAgentLogData)
	?NewL@CNSmlDSAgentLog@@SAPAV1@XZ @ 5 NONAME ; class CNSmlDSAgentLog * CNSmlDSAgentLog::NewL(void)
	?NewLC@CNSmlDSAgentLog@@SAPAV1@XZ @ 6 NONAME ; class CNSmlDSAgentLog * CNSmlDSAgentLog::NewLC(void)
	?NonceL@CNSmlDSAgentLog@@QAEPAVHBufC16@@ABVTDesC16@@@Z @ 7 NONAME ; class HBufC16 * CNSmlDSAgentLog::NonceL(class TDesC16 const &)
	?SessionIDL@CNSmlDSAgentLog@@QAEHABVTDesC16@@@Z @ 8 NONAME ; int CNSmlDSAgentLog::SessionIDL(class TDesC16 const &)
	?SetAgentLogKeyL@CNSmlDSAgentLog@@QAEXHABVTDesC16@@00@Z @ 9 NONAME ; void CNSmlDSAgentLog::SetAgentLogKeyL(int, class TDesC16 const &, class TDesC16 const &, class TDesC16 const &)
	?SetAuthTypeL@CNSmlDSAgentLog@@QAEXABVTDesC16@@W4TNSmlAgentLogAuthenticationType@@@Z @ 10 NONAME ; void CNSmlDSAgentLog::SetAuthTypeL(class TDesC16 const &, enum TNSmlAgentLogAuthenticationType)
	?SetIntValueL@CNSmlDSAgentLog@@QAEXW4TNSmlAgentLogData@@H@Z @ 11 NONAME ; void CNSmlDSAgentLog::SetIntValueL(enum TNSmlAgentLogData, int)
	?SetNonceL@CNSmlDSAgentLog@@QAEXABVTDesC16@@0@Z @ 12 NONAME ; void CNSmlDSAgentLog::SetNonceL(class TDesC16 const &, class TDesC16 const &)
	?SetServerDeviceInfoL@CNSmlDSAgentLog@@QAEXABV?$RPointerArray@VCNSmlDbCaps@@@@@Z @ 13 NONAME ; void CNSmlDSAgentLog::SetServerDeviceInfoL(class RPointerArray<class CNSmlDbCaps> const &)
	?SetServerFilterInfoL@CNSmlDSAgentLog@@QAEXPBV?$CArrayFix@UTNSmlFilterCapData@@@@@Z @ 14 NONAME ; void CNSmlDSAgentLog::SetServerFilterInfoL(class CArrayFix<struct TNSmlFilterCapData> const *)
	?SetServerIdL@CNSmlDSAgentLog@@QAEXAAVTDesC16@@0@Z @ 15 NONAME ; void CNSmlDSAgentLog::SetServerIdL(class TDesC16 &, class TDesC16 &)
	?SetSessionIDL@CNSmlDSAgentLog@@QAEXABVTDesC16@@H@Z @ 16 NONAME ; void CNSmlDSAgentLog::SetSessionIDL(class TDesC16 const &, int)
	?SetTimeValueL@CNSmlDSAgentLog@@QAEXW4TNSmlAgentLogData@@ABVTTime@@@Z @ 17 NONAME ; void CNSmlDSAgentLog::SetTimeValueL(enum TNSmlAgentLogData, class TTime const &)
	?TimeValueL@CNSmlDSAgentLog@@QAE?AVTTime@@W4TNSmlAgentLogData@@@Z @ 18 NONAME ; class TTime CNSmlDSAgentLog::TimeValueL(enum TNSmlAgentLogData)
	?CloseReadStreamL@CNSmlDSAgentLog@@QAEXXZ @ 19 NONAME ; void CNSmlDSAgentLog::CloseReadStreamL(void)
	?CloseWriteStreamL@CNSmlDSAgentLog@@QAEXH@Z @ 20 NONAME ; void CNSmlDSAgentLog::CloseWriteStreamL(int)
	?DeleteStoreL@CNSmlDSAgentLog@@QAEXXZ @ 21 NONAME ; void CNSmlDSAgentLog::DeleteStoreL(void)
	?DeleteStreamL@CNSmlDSAgentLog@@QAEXVTUid@@@Z @ 22 NONAME ; void CNSmlDSAgentLog::DeleteStreamL(class TUid)
	?IsPresentL@CNSmlDSAgentLog@@QAEHVTUid@@@Z @ 23 NONAME ; int CNSmlDSAgentLog::IsPresentL(class TUid)
	?OpenReadStreamL@CNSmlDSAgentLog@@QAEPAVMStreamBuf@@VTUid@@@Z @ 24 NONAME ; class MStreamBuf * CNSmlDSAgentLog::OpenReadStreamL(class TUid)
	?OpenWriteStreamL@CNSmlDSAgentLog@@QAEPAVMStreamBuf@@VTUid@@@Z @ 25 NONAME ; class MStreamBuf * CNSmlDSAgentLog::OpenWriteStreamL(class TUid)

